
pi.elf:     file format elf32-littleriscv


Disassembly of section .text:

80001000 <outp>:
80001000:	fe010113          	addi	sp,sp,-32
80001004:	00052583          	lw	a1,0(a0)
80001008:	00912a23          	sw	s1,20(sp)
8000100c:	00450493          	addi	s1,a0,4
80001010:	80008537          	lui	a0,0x80008
80001014:	01212823          	sw	s2,16(sp)
80001018:	01412423          	sw	s4,8(sp)
8000101c:	01512223          	sw	s5,4(sp)
80001020:	00050513          	mv	a0,a0
80001024:	80008937          	lui	s2,0x80008
80001028:	80008ab7          	lui	s5,0x80008
8000102c:	80008a37          	lui	s4,0x80008
80001030:	00812c23          	sw	s0,24(sp)
80001034:	01312623          	sw	s3,12(sp)
80001038:	00112e23          	sw	ra,28(sp)
8000103c:	01890913          	addi	s2,s2,24 # 80008018 <heap_top+0x1ec4>
80001040:	79c010ef          	jal	800027dc <printf>
80001044:	014a8a93          	addi	s5,s5,20 # 80008014 <heap_top+0x1ec0>
80001048:	010a0a13          	addi	s4,s4,16 # 80008010 <heap_top+0x1ebc>
8000104c:	00100413          	li	s0,1
80001050:	00900993          	li	s3,9
80001054:	0140006f          	j	80001068 <outp+0x68>
80001058:	00140413          	addi	s0,s0,1
8000105c:	4e300793          	li	a5,1251
80001060:	00448493          	addi	s1,s1,4
80001064:	04f40e63          	beq	s0,a5,800010c0 <outp+0xc0>
80001068:	0004a583          	lw	a1,0(s1)
8000106c:	08058063          	beqz	a1,800010ec <outp+0xec>
80001070:	08b9d663          	bge	s3,a1,800010fc <outp+0xfc>
80001074:	06300793          	li	a5,99
80001078:	08b7dc63          	bge	a5,a1,80001110 <outp+0x110>
8000107c:	3e700793          	li	a5,999
80001080:	0ab7d063          	bge	a5,a1,80001120 <outp+0x120>
80001084:	00090513          	mv	a0,s2
80001088:	754010ef          	jal	800027dc <printf>
8000108c:	eeeef7b7          	lui	a5,0xeeeef
80001090:	eef78793          	addi	a5,a5,-273 # eeeeeeef <__stack_top+0x6eed8b1f>
80001094:	02f407b3          	mul	a5,s0,a5
80001098:	11111737          	lui	a4,0x11111
8000109c:	11170713          	addi	a4,a4,273 # 11111111 <__heap_size+0x11104111>
800010a0:	faf76ce3          	bltu	a4,a5,80001058 <outp+0x58>
800010a4:	80008537          	lui	a0,0x80008
800010a8:	01c50513          	addi	a0,a0,28 # 8000801c <heap_top+0x1ec8>
800010ac:	730010ef          	jal	800027dc <printf>
800010b0:	00140413          	addi	s0,s0,1
800010b4:	4e300793          	li	a5,1251
800010b8:	00448493          	addi	s1,s1,4
800010bc:	faf416e3          	bne	s0,a5,80001068 <outp+0x68>
800010c0:	01812403          	lw	s0,24(sp)
800010c4:	01c12083          	lw	ra,28(sp)
800010c8:	01412483          	lw	s1,20(sp)
800010cc:	01012903          	lw	s2,16(sp)
800010d0:	00c12983          	lw	s3,12(sp)
800010d4:	00812a03          	lw	s4,8(sp)
800010d8:	00412a83          	lw	s5,4(sp)
800010dc:	80008537          	lui	a0,0x80008
800010e0:	02050513          	addi	a0,a0,32 # 80008020 <heap_top+0x1ecc>
800010e4:	02010113          	addi	sp,sp,32
800010e8:	6f40106f          	j	800027dc <printf>
800010ec:	80008537          	lui	a0,0x80008
800010f0:	00450513          	addi	a0,a0,4 # 80008004 <heap_top+0x1eb0>
800010f4:	6e8010ef          	jal	800027dc <printf>
800010f8:	f95ff06f          	j	8000108c <outp+0x8c>
800010fc:	80008537          	lui	a0,0x80008
80001100:	00c50513          	addi	a0,a0,12 # 8000800c <heap_top+0x1eb8>
80001104:	6d8010ef          	jal	800027dc <printf>
80001108:	0004a583          	lw	a1,0(s1)
8000110c:	f79ff06f          	j	80001084 <outp+0x84>
80001110:	000a0513          	mv	a0,s4
80001114:	6c8010ef          	jal	800027dc <printf>
80001118:	0004a583          	lw	a1,0(s1)
8000111c:	f69ff06f          	j	80001084 <outp+0x84>
80001120:	000a8513          	mv	a0,s5
80001124:	6b8010ef          	jal	800027dc <printf>
80001128:	0004a583          	lw	a1,0(s1)
8000112c:	f59ff06f          	j	80001084 <outp+0x84>

80001130 <add>:
80001130:	000018b7          	lui	a7,0x1
80001134:	39088893          	addi	a7,a7,912 # 1390 <__stack_size+0x390>
80001138:	00000793          	li	a5,0
8000113c:	00f586b3          	add	a3,a1,a5
80001140:	00f50733          	add	a4,a0,a5
80001144:	0006a803          	lw	a6,0(a3)
80001148:	00072703          	lw	a4,0(a4)
8000114c:	00f606b3          	add	a3,a2,a5
80001150:	00478793          	addi	a5,a5,4
80001154:	01070733          	add	a4,a4,a6
80001158:	00e6a023          	sw	a4,0(a3)
8000115c:	ff1790e3          	bne	a5,a7,8000113c <add+0xc>
80001160:	000017b7          	lui	a5,0x1
80001164:	38878793          	addi	a5,a5,904 # 1388 <__stack_size+0x388>
80001168:	00002537          	lui	a0,0x2
8000116c:	ffffe5b7          	lui	a1,0xffffe
80001170:	00f607b3          	add	a5,a2,a5
80001174:	70f50513          	addi	a0,a0,1807 # 270f <__stack_size+0x170f>
80001178:	8f058593          	addi	a1,a1,-1808 # ffffd8f0 <__stack_top+0x7ffe7520>
8000117c:	0047a703          	lw	a4,4(a5)
80001180:	00b706b3          	add	a3,a4,a1
80001184:	00e55a63          	bge	a0,a4,80001198 <add+0x68>
80001188:	0007a703          	lw	a4,0(a5)
8000118c:	00d7a223          	sw	a3,4(a5)
80001190:	00170713          	addi	a4,a4,1
80001194:	00e7a023          	sw	a4,0(a5)
80001198:	00f60663          	beq	a2,a5,800011a4 <add+0x74>
8000119c:	ffc78793          	addi	a5,a5,-4
800011a0:	fddff06f          	j	8000117c <add+0x4c>
800011a4:	00008067          	ret

800011a8 <sub>:
800011a8:	000018b7          	lui	a7,0x1
800011ac:	39088893          	addi	a7,a7,912 # 1390 <__stack_size+0x390>
800011b0:	00000793          	li	a5,0
800011b4:	00f586b3          	add	a3,a1,a5
800011b8:	00f50733          	add	a4,a0,a5
800011bc:	0006a803          	lw	a6,0(a3)
800011c0:	00072703          	lw	a4,0(a4)
800011c4:	00f606b3          	add	a3,a2,a5
800011c8:	00478793          	addi	a5,a5,4
800011cc:	41070733          	sub	a4,a4,a6
800011d0:	00e6a023          	sw	a4,0(a3)
800011d4:	ff1790e3          	bne	a5,a7,800011b4 <sub+0xc>
800011d8:	000017b7          	lui	a5,0x1
800011dc:	38878793          	addi	a5,a5,904 # 1388 <__stack_size+0x388>
800011e0:	00f607b3          	add	a5,a2,a5
800011e4:	0047a703          	lw	a4,4(a5)
800011e8:	000025b7          	lui	a1,0x2
800011ec:	71058593          	addi	a1,a1,1808 # 2710 <__stack_size+0x1710>
800011f0:	00b706b3          	add	a3,a4,a1
800011f4:	00074c63          	bltz	a4,8000120c <sub+0x64>
800011f8:	02f60463          	beq	a2,a5,80001220 <sub+0x78>
800011fc:	0007a703          	lw	a4,0(a5)
80001200:	ffc78793          	addi	a5,a5,-4
80001204:	00b706b3          	add	a3,a4,a1
80001208:	fe0758e3          	bgez	a4,800011f8 <sub+0x50>
8000120c:	0007a703          	lw	a4,0(a5)
80001210:	00d7a223          	sw	a3,4(a5)
80001214:	fff70713          	addi	a4,a4,-1
80001218:	00e7a023          	sw	a4,0(a5)
8000121c:	fef610e3          	bne	a2,a5,800011fc <sub+0x54>
80001220:	00008067          	ret

80001224 <mul>:
80001224:	000018b7          	lui	a7,0x1
80001228:	38c88893          	addi	a7,a7,908 # 138c <__stack_size+0x38c>
8000122c:	68db9e37          	lui	t3,0x68db9
80001230:	ffffe337          	lui	t1,0xffffe
80001234:	011506b3          	add	a3,a0,a7
80001238:	bade0e13          	addi	t3,t3,-1107 # 68db8bad <__heap_size+0x68dabbad>
8000123c:	011608b3          	add	a7,a2,a7
80001240:	8f030313          	addi	t1,t1,-1808 # ffffd8f0 <__stack_top+0x7ffe7520>
80001244:	00000713          	li	a4,0
80001248:	0006a783          	lw	a5,0(a3)
8000124c:	ffc68693          	addi	a3,a3,-4
80001250:	ffc88893          	addi	a7,a7,-4
80001254:	02f587b3          	mul	a5,a1,a5
80001258:	00e787b3          	add	a5,a5,a4
8000125c:	03c79733          	mulh	a4,a5,t3
80001260:	41f7d813          	srai	a6,a5,0x1f
80001264:	40c75713          	srai	a4,a4,0xc
80001268:	41070733          	sub	a4,a4,a6
8000126c:	02670833          	mul	a6,a4,t1
80001270:	00f807b3          	add	a5,a6,a5
80001274:	00f8a223          	sw	a5,4(a7)
80001278:	fcd518e3          	bne	a0,a3,80001248 <mul+0x24>
8000127c:	00052783          	lw	a5,0(a0)
80001280:	00e787b3          	add	a5,a5,a4
80001284:	00f62023          	sw	a5,0(a2)
80001288:	00008067          	ret

8000128c <divl>:
8000128c:	00001737          	lui	a4,0x1
80001290:	38c70713          	addi	a4,a4,908 # 138c <__stack_size+0x38c>
80001294:	000028b7          	lui	a7,0x2
80001298:	00052783          	lw	a5,0(a0)
8000129c:	00e60833          	add	a6,a2,a4
800012a0:	00450513          	addi	a0,a0,4
800012a4:	00060713          	mv	a4,a2
800012a8:	71088893          	addi	a7,a7,1808 # 2710 <__stack_size+0x1710>
800012ac:	02b7e6b3          	rem	a3,a5,a1
800012b0:	00470713          	addi	a4,a4,4
800012b4:	00450513          	addi	a0,a0,4
800012b8:	02b7c7b3          	div	a5,a5,a1
800012bc:	031686b3          	mul	a3,a3,a7
800012c0:	fef72e23          	sw	a5,-4(a4)
800012c4:	ffc52783          	lw	a5,-4(a0)
800012c8:	00f687b3          	add	a5,a3,a5
800012cc:	ff0710e3          	bne	a4,a6,800012ac <divl+0x20>
800012d0:	02b7c7b3          	div	a5,a5,a1
800012d4:	00001737          	lui	a4,0x1
800012d8:	00e60633          	add	a2,a2,a4
800012dc:	38f62623          	sw	a5,908(a2)
800012e0:	00008067          	ret

800012e4 <termno>:
800012e4:	fe010113          	addi	sp,sp,-32
800012e8:	00050793          	mv	a5,a0
800012ec:	00112e23          	sw	ra,28(sp)
800012f0:	00812c23          	sw	s0,24(sp)
800012f4:	00500713          	li	a4,5
800012f8:	00058513          	mv	a0,a1
800012fc:	06e78063          	beq	a5,a4,8000135c <termno+0x78>
80001300:	00a00713          	li	a4,10
80001304:	02e78063          	beq	a5,a4,80001324 <termno+0x40>
80001308:	0ef00713          	li	a4,239
8000130c:	06e78863          	beq	a5,a4,8000137c <termno+0x98>
80001310:	20300713          	li	a4,515
80001314:	04e78c63          	beq	a5,a4,8000136c <termno+0x88>
80001318:	80006437          	lui	s0,0x80006
8000131c:	13c42583          	lw	a1,316(s0) # 8000613c <__clzsi2+0x5c>
80001320:	0100006f          	j	80001330 <termno+0x4c>
80001324:	800067b7          	lui	a5,0x80006
80001328:	1307a583          	lw	a1,304(a5) # 80006130 <__clzsi2+0x50>
8000132c:	80006437          	lui	s0,0x80006
80001330:	00b12623          	sw	a1,12(sp)
80001334:	4a1040ef          	jal	80005fd4 <__floatsisf>
80001338:	00c12583          	lw	a1,12(sp)
8000133c:	10d040ef          	jal	80005c48 <__mulsf3>
80001340:	13c42583          	lw	a1,316(s0) # 8000613c <__clzsi2+0x5c>
80001344:	4d8040ef          	jal	8000581c <__addsf3>
80001348:	41d040ef          	jal	80005f64 <__fixsfsi>
8000134c:	01c12083          	lw	ra,28(sp)
80001350:	01812403          	lw	s0,24(sp)
80001354:	02010113          	addi	sp,sp,32
80001358:	00008067          	ret
8000135c:	800067b7          	lui	a5,0x80006
80001360:	12c7a583          	lw	a1,300(a5) # 8000612c <__clzsi2+0x4c>
80001364:	80006437          	lui	s0,0x80006
80001368:	fc9ff06f          	j	80001330 <termno+0x4c>
8000136c:	800067b7          	lui	a5,0x80006
80001370:	1387a583          	lw	a1,312(a5) # 80006138 <__clzsi2+0x58>
80001374:	80006437          	lui	s0,0x80006
80001378:	fb9ff06f          	j	80001330 <termno+0x4c>
8000137c:	800067b7          	lui	a5,0x80006
80001380:	1347a583          	lw	a1,308(a5) # 80006134 <__clzsi2+0x54>
80001384:	80006437          	lui	s0,0x80006
80001388:	fa9ff06f          	j	80001330 <termno+0x4c>

8000138c <arctan>:
8000138c:	800087b7          	lui	a5,0x80008
80001390:	3b87a603          	lw	a2,952(a5) # 800083b8 <one>
80001394:	800087b7          	lui	a5,0x80008
80001398:	3ac7af03          	lw	t5,940(a5) # 800083ac <pwr>
8000139c:	000018b7          	lui	a7,0x1
800013a0:	fe010113          	addi	sp,sp,-32
800013a4:	38c88893          	addi	a7,a7,908 # 138c <__stack_size+0x38c>
800013a8:	00002837          	lui	a6,0x2
800013ac:	00062783          	lw	a5,0(a2)
800013b0:	00812e23          	sw	s0,28(sp)
800013b4:	00912c23          	sw	s1,24(sp)
800013b8:	01212a23          	sw	s2,20(sp)
800013bc:	01312823          	sw	s3,16(sp)
800013c0:	01412623          	sw	s4,12(sp)
800013c4:	01512423          	sw	s5,8(sp)
800013c8:	01612223          	sw	s6,4(sp)
800013cc:	00460613          	addi	a2,a2,4
800013d0:	011f08b3          	add	a7,t5,a7
800013d4:	000f0713          	mv	a4,t5
800013d8:	71080813          	addi	a6,a6,1808 # 2710 <__stack_size+0x1710>
800013dc:	02a7e6b3          	rem	a3,a5,a0
800013e0:	00470713          	addi	a4,a4,4 # 1004 <__stack_size+0x4>
800013e4:	00460613          	addi	a2,a2,4
800013e8:	02a7c7b3          	div	a5,a5,a0
800013ec:	030686b3          	mul	a3,a3,a6
800013f0:	fef72e23          	sw	a5,-4(a4)
800013f4:	ffc62783          	lw	a5,-4(a2)
800013f8:	00f687b3          	add	a5,a3,a5
800013fc:	ff1710e3          	bne	a4,a7,800013dc <arctan+0x50>
80001400:	02a7c7b3          	div	a5,a5,a0
80001404:	00001837          	lui	a6,0x1
80001408:	39080613          	addi	a2,a6,912 # 1390 <__stack_size+0x390>
8000140c:	010f0833          	add	a6,t5,a6
80001410:	00cf0633          	add	a2,t5,a2
80001414:	00058693          	mv	a3,a1
80001418:	000f0713          	mv	a4,t5
8000141c:	38f82623          	sw	a5,908(a6)
80001420:	00072783          	lw	a5,0(a4)
80001424:	00470713          	addi	a4,a4,4
80001428:	00468693          	addi	a3,a3,4
8000142c:	fef6ae23          	sw	a5,-4(a3)
80001430:	fee618e3          	bne	a2,a4,80001420 <arctan+0x94>
80001434:	000013b7          	lui	t2,0x1
80001438:	00500793          	li	a5,5
8000143c:	dfc38393          	addi	t2,t2,-516 # dfc <__stack_size-0x204>
80001440:	02f50863          	beq	a0,a5,80001470 <arctan+0xe4>
80001444:	000013b7          	lui	t2,0x1
80001448:	00a00793          	li	a5,10
8000144c:	9c638393          	addi	t2,t2,-1594 # 9c6 <__stack_size-0x63a>
80001450:	02f50063          	beq	a0,a5,80001470 <arctan+0xe4>
80001454:	0ef00793          	li	a5,239
80001458:	41c00393          	li	t2,1052
8000145c:	00f50a63          	beq	a0,a5,80001470 <arctan+0xe4>
80001460:	000013b7          	lui	t2,0x1
80001464:	20300793          	li	a5,515
80001468:	38d38393          	addi	t2,t2,909 # 138d <__stack_size+0x38d>
8000146c:	1ef50463          	beq	a0,a5,80001654 <arctan+0x2c8>
80001470:	800087b7          	lui	a5,0x80008
80001474:	3a87af83          	lw	t6,936(a5) # 800083a8 <trm>
80001478:	00001837          	lui	a6,0x1
8000147c:	00001337          	lui	t1,0x1
80001480:	000014b7          	lui	s1,0x1
80001484:	00001937          	lui	s2,0x1
80001488:	38c80813          	addi	a6,a6,908 # 138c <__stack_size+0x38c>
8000148c:	39030313          	addi	t1,t1,912 # 1390 <__stack_size+0x390>
80001490:	38848493          	addi	s1,s1,904 # 1388 <__stack_size+0x388>
80001494:	00002737          	lui	a4,0x2
80001498:	00002eb7          	lui	t4,0x2
8000149c:	ffffee37          	lui	t3,0xffffe
800014a0:	012f8433          	add	s0,t6,s2
800014a4:	00138393          	addi	t2,t2,1
800014a8:	010f8833          	add	a6,t6,a6
800014ac:	012f0933          	add	s2,t5,s2
800014b0:	00658333          	add	t1,a1,t1
800014b4:	009584b3          	add	s1,a1,s1
800014b8:	71070713          	addi	a4,a4,1808 # 2710 <__stack_size+0x1710>
800014bc:	70fe8e93          	addi	t4,t4,1807 # 270f <__stack_size+0x170f>
800014c0:	8f0e0e13          	addi	t3,t3,-1808 # ffffd8f0 <__stack_top+0x7ffe7520>
800014c4:	00300613          	li	a2,3
800014c8:	00100293          	li	t0,1
800014cc:	000f2783          	lw	a5,0(t5)
800014d0:	004f0993          	addi	s3,t5,4
800014d4:	000f8693          	mv	a3,t6
800014d8:	00098b13          	mv	s6,s3
800014dc:	000f8a13          	mv	s4,t6
800014e0:	02a7eab3          	rem	s5,a5,a0
800014e4:	004a0a13          	addi	s4,s4,4
800014e8:	004b0b13          	addi	s6,s6,4
800014ec:	02a7c7b3          	div	a5,a5,a0
800014f0:	02ea8ab3          	mul	s5,s5,a4
800014f4:	fefa2e23          	sw	a5,-4(s4)
800014f8:	ffcb2783          	lw	a5,-4(s6)
800014fc:	00fa87b3          	add	a5,s5,a5
80001500:	ff4810e3          	bne	a6,s4,800014e0 <arctan+0x154>
80001504:	02a7c7b3          	div	a5,a5,a0
80001508:	004f8b13          	addi	s6,t6,4
8000150c:	000f0a13          	mv	s4,t5
80001510:	38f42623          	sw	a5,908(s0) # 8000638c <heap_top+0x238>
80001514:	000fa783          	lw	a5,0(t6)
80001518:	02a7eab3          	rem	s5,a5,a0
8000151c:	004a0a13          	addi	s4,s4,4
80001520:	004b0b13          	addi	s6,s6,4
80001524:	02a7c7b3          	div	a5,a5,a0
80001528:	02ea8ab3          	mul	s5,s5,a4
8000152c:	fefa2e23          	sw	a5,-4(s4)
80001530:	ffcb2783          	lw	a5,-4(s6)
80001534:	00fa87b3          	add	a5,s5,a5
80001538:	ff1a10e3          	bne	s4,a7,80001518 <arctan+0x18c>
8000153c:	02a7c7b3          	div	a5,a5,a0
80001540:	000f8a13          	mv	s4,t6
80001544:	38f92623          	sw	a5,908(s2) # 138c <__stack_size+0x38c>
80001548:	000f2783          	lw	a5,0(t5)
8000154c:	02c7eab3          	rem	s5,a5,a2
80001550:	004a0a13          	addi	s4,s4,4
80001554:	00498993          	addi	s3,s3,4
80001558:	02c7c7b3          	div	a5,a5,a2
8000155c:	02ea8ab3          	mul	s5,s5,a4
80001560:	fefa2e23          	sw	a5,-4(s4)
80001564:	ffc9a783          	lw	a5,-4(s3)
80001568:	00fa87b3          	add	a5,s5,a5
8000156c:	ff4810e3          	bne	a6,s4,8000154c <arctan+0x1c0>
80001570:	02c7c7b3          	div	a5,a5,a2
80001574:	38f42623          	sw	a5,908(s0)
80001578:	0012f793          	andi	a5,t0,1
8000157c:	08078663          	beqz	a5,80001608 <arctan+0x27c>
80001580:	00058793          	mv	a5,a1
80001584:	0007a983          	lw	s3,0(a5)
80001588:	0006aa03          	lw	s4,0(a3)
8000158c:	00478793          	addi	a5,a5,4
80001590:	00468693          	addi	a3,a3,4
80001594:	414989b3          	sub	s3,s3,s4
80001598:	ff37ae23          	sw	s3,-4(a5)
8000159c:	fef314e3          	bne	t1,a5,80001584 <arctan+0x1f8>
800015a0:	00048793          	mv	a5,s1
800015a4:	0047a683          	lw	a3,4(a5)
800015a8:	00e689b3          	add	s3,a3,a4
800015ac:	0006cc63          	bltz	a3,800015c4 <arctan+0x238>
800015b0:	02f58463          	beq	a1,a5,800015d8 <arctan+0x24c>
800015b4:	0007a683          	lw	a3,0(a5)
800015b8:	ffc78793          	addi	a5,a5,-4
800015bc:	00e689b3          	add	s3,a3,a4
800015c0:	fe06d8e3          	bgez	a3,800015b0 <arctan+0x224>
800015c4:	0007a683          	lw	a3,0(a5)
800015c8:	0137a223          	sw	s3,4(a5)
800015cc:	fff68693          	addi	a3,a3,-1
800015d0:	00d7a023          	sw	a3,0(a5)
800015d4:	fef590e3          	bne	a1,a5,800015b4 <arctan+0x228>
800015d8:	00128293          	addi	t0,t0,1
800015dc:	00260613          	addi	a2,a2,2
800015e0:	ee7296e3          	bne	t0,t2,800014cc <arctan+0x140>
800015e4:	01c12403          	lw	s0,28(sp)
800015e8:	01812483          	lw	s1,24(sp)
800015ec:	01412903          	lw	s2,20(sp)
800015f0:	01012983          	lw	s3,16(sp)
800015f4:	00c12a03          	lw	s4,12(sp)
800015f8:	00812a83          	lw	s5,8(sp)
800015fc:	00412b03          	lw	s6,4(sp)
80001600:	02010113          	addi	sp,sp,32
80001604:	00008067          	ret
80001608:	00058793          	mv	a5,a1
8000160c:	0007a983          	lw	s3,0(a5)
80001610:	0006aa03          	lw	s4,0(a3)
80001614:	00478793          	addi	a5,a5,4
80001618:	00468693          	addi	a3,a3,4
8000161c:	014989b3          	add	s3,s3,s4
80001620:	ff37ae23          	sw	s3,-4(a5)
80001624:	fef314e3          	bne	t1,a5,8000160c <arctan+0x280>
80001628:	00048793          	mv	a5,s1
8000162c:	0047a683          	lw	a3,4(a5)
80001630:	01c689b3          	add	s3,a3,t3
80001634:	00deda63          	bge	t4,a3,80001648 <arctan+0x2bc>
80001638:	0007a683          	lw	a3,0(a5)
8000163c:	0137a223          	sw	s3,4(a5)
80001640:	00168693          	addi	a3,a3,1
80001644:	00d7a023          	sw	a3,0(a5)
80001648:	f8f588e3          	beq	a1,a5,800015d8 <arctan+0x24c>
8000164c:	ffc78793          	addi	a5,a5,-4
80001650:	fddff06f          	j	8000162c <arctan+0x2a0>
80001654:	39b00393          	li	t2,923
80001658:	e19ff06f          	j	80001470 <arctan+0xe4>

8000165c <main>:
8000165c:	80008537          	lui	a0,0x80008
80001660:	000015b7          	lui	a1,0x1
80001664:	fc010113          	addi	sp,sp,-64
80001668:	38858593          	addi	a1,a1,904 # 1388 <__stack_size+0x388>
8000166c:	02450513          	addi	a0,a0,36 # 80008024 <heap_top+0x1ed0>
80001670:	02112e23          	sw	ra,60(sp)
80001674:	02812c23          	sw	s0,56(sp)
80001678:	02912a23          	sw	s1,52(sp)
8000167c:	03212823          	sw	s2,48(sp)
80001680:	03312623          	sw	s3,44(sp)
80001684:	03412423          	sw	s4,40(sp)
80001688:	03512223          	sw	s5,36(sp)
8000168c:	03612023          	sw	s6,32(sp)
80001690:	01712e23          	sw	s7,28(sp)
80001694:	01812c23          	sw	s8,24(sp)
80001698:	144010ef          	jal	800027dc <printf>
8000169c:	00001537          	lui	a0,0x1
800016a0:	39050513          	addi	a0,a0,912 # 1390 <__stack_size+0x390>
800016a4:	3d0010ef          	jal	80002a74 <malloc>
800016a8:	80008937          	lui	s2,0x80008
800016ac:	3aa92c23          	sw	a0,952(s2) # 800083b8 <one>
800016b0:	00001537          	lui	a0,0x1
800016b4:	39050513          	addi	a0,a0,912 # 1390 <__stack_size+0x390>
800016b8:	3bc010ef          	jal	80002a74 <malloc>
800016bc:	800084b7          	lui	s1,0x80008
800016c0:	3aa4aa23          	sw	a0,948(s1) # 800083b4 <temp>
800016c4:	00001537          	lui	a0,0x1
800016c8:	39050513          	addi	a0,a0,912 # 1390 <__stack_size+0x390>
800016cc:	3a8010ef          	jal	80002a74 <malloc>
800016d0:	80008437          	lui	s0,0x80008
800016d4:	3aa42823          	sw	a0,944(s0) # 800083b0 <pi>
800016d8:	00001537          	lui	a0,0x1
800016dc:	39050513          	addi	a0,a0,912 # 1390 <__stack_size+0x390>
800016e0:	394010ef          	jal	80002a74 <malloc>
800016e4:	800089b7          	lui	s3,0x80008
800016e8:	3aa9a623          	sw	a0,940(s3) # 800083ac <pwr>
800016ec:	00001537          	lui	a0,0x1
800016f0:	39050513          	addi	a0,a0,912 # 1390 <__stack_size+0x390>
800016f4:	380010ef          	jal	80002a74 <malloc>
800016f8:	3b892783          	lw	a5,952(s2)
800016fc:	3b44a603          	lw	a2,948(s1)
80001700:	3b042683          	lw	a3,944(s0)
80001704:	3ac9a703          	lw	a4,940(s3)
80001708:	00c7f633          	and	a2,a5,a2
8000170c:	00c6f6b3          	and	a3,a3,a2
80001710:	00d77733          	and	a4,a4,a3
80001714:	80008a37          	lui	s4,0x80008
80001718:	00e57733          	and	a4,a0,a4
8000171c:	3aaa2423          	sw	a0,936(s4) # 800083a8 <trm>
80001720:	1a070c63          	beqz	a4,800018d8 <main+0x27c>
80001724:	00001737          	lui	a4,0x1
80001728:	39070713          	addi	a4,a4,912 # 1390 <__stack_size+0x390>
8000172c:	00100693          	li	a3,1
80001730:	00e78733          	add	a4,a5,a4
80001734:	00d7a023          	sw	a3,0(a5)
80001738:	00478793          	addi	a5,a5,4
8000173c:	0007a023          	sw	zero,0(a5)
80001740:	00478793          	addi	a5,a5,4
80001744:	fef71ce3          	bne	a4,a5,8000173c <main+0xe0>
80001748:	575010ef          	jal	800034bc <clock>
8000174c:	3b44ab83          	lw	s7,948(s1)
80001750:	00050c13          	mv	s8,a0
80001754:	00500513          	li	a0,5
80001758:	000b8593          	mv	a1,s7
8000175c:	c31ff0ef          	jal	8000138c <arctan>
80001760:	3b042603          	lw	a2,944(s0)
80001764:	000015b7          	lui	a1,0x1
80001768:	38c58593          	addi	a1,a1,908 # 138c <__stack_size+0x38c>
8000176c:	00bb8ab3          	add	s5,s7,a1
80001770:	68db9837          	lui	a6,0x68db9
80001774:	ffffe537          	lui	a0,0xffffe
80001778:	00b605b3          	add	a1,a2,a1
8000177c:	000a8b13          	mv	s6,s5
80001780:	bad80813          	addi	a6,a6,-1107 # 68db8bad <__heap_size+0x68dabbad>
80001784:	8f050513          	addi	a0,a0,-1808 # ffffd8f0 <__stack_top+0x7ffe7520>
80001788:	00000713          	li	a4,0
8000178c:	000b2783          	lw	a5,0(s6)
80001790:	ffcb0b13          	addi	s6,s6,-4
80001794:	ffc58593          	addi	a1,a1,-4
80001798:	00479793          	slli	a5,a5,0x4
8000179c:	00e787b3          	add	a5,a5,a4
800017a0:	03079733          	mulh	a4,a5,a6
800017a4:	41f7d693          	srai	a3,a5,0x1f
800017a8:	40c75713          	srai	a4,a4,0xc
800017ac:	40d70733          	sub	a4,a4,a3
800017b0:	02a706b3          	mul	a3,a4,a0
800017b4:	00f687b3          	add	a5,a3,a5
800017b8:	00f5a223          	sw	a5,4(a1)
800017bc:	fd6b98e3          	bne	s7,s6,8000178c <main+0x130>
800017c0:	000ba783          	lw	a5,0(s7)
800017c4:	000b8593          	mv	a1,s7
800017c8:	0ef00513          	li	a0,239
800017cc:	00e787b3          	add	a5,a5,a4
800017d0:	00f62023          	sw	a5,0(a2)
800017d4:	00c12623          	sw	a2,12(sp)
800017d8:	bb5ff0ef          	jal	8000138c <arctan>
800017dc:	00c12603          	lw	a2,12(sp)
800017e0:	68db9537          	lui	a0,0x68db9
800017e4:	ffffe5b7          	lui	a1,0xffffe
800017e8:	bad50513          	addi	a0,a0,-1107 # 68db8bad <__heap_size+0x68dabbad>
800017ec:	8f058593          	addi	a1,a1,-1808 # ffffd8f0 <__stack_top+0x7ffe7520>
800017f0:	00000713          	li	a4,0
800017f4:	000aa783          	lw	a5,0(s5)
800017f8:	ffca8a93          	addi	s5,s5,-4
800017fc:	00279793          	slli	a5,a5,0x2
80001800:	00e787b3          	add	a5,a5,a4
80001804:	02a79733          	mulh	a4,a5,a0
80001808:	41f7d693          	srai	a3,a5,0x1f
8000180c:	40c75713          	srai	a4,a4,0xc
80001810:	40d70733          	sub	a4,a4,a3
80001814:	02b706b3          	mul	a3,a4,a1
80001818:	00f687b3          	add	a5,a3,a5
8000181c:	00faa223          	sw	a5,4(s5)
80001820:	fd6a9ae3          	bne	s5,s6,800017f4 <main+0x198>
80001824:	000ba783          	lw	a5,0(s7)
80001828:	000b8593          	mv	a1,s7
8000182c:	00060513          	mv	a0,a2
80001830:	00e787b3          	add	a5,a5,a4
80001834:	00fba023          	sw	a5,0(s7)
80001838:	971ff0ef          	jal	800011a8 <sub>
8000183c:	481010ef          	jal	800034bc <clock>
80001840:	41850ab3          	sub	s5,a0,s8
80001844:	80008537          	lui	a0,0x80008
80001848:	05c50513          	addi	a0,a0,92 # 8000805c <heap_top+0x1f08>
8000184c:	791000ef          	jal	800027dc <printf>
80001850:	3b042503          	lw	a0,944(s0)
80001854:	facff0ef          	jal	80001000 <outp>
80001858:	106257b7          	lui	a5,0x10625
8000185c:	dd378793          	addi	a5,a5,-557 # 10624dd3 <__heap_size+0x10617dd3>
80001860:	02fab5b3          	mulhu	a1,s5,a5
80001864:	80008537          	lui	a0,0x80008
80001868:	00001637          	lui	a2,0x1
8000186c:	38860613          	addi	a2,a2,904 # 1388 <__stack_size+0x388>
80001870:	06450513          	addi	a0,a0,100 # 80008064 <heap_top+0x1f10>
80001874:	0065d593          	srli	a1,a1,0x6
80001878:	765000ef          	jal	800027dc <printf>
8000187c:	3b892503          	lw	a0,952(s2)
80001880:	328010ef          	jal	80002ba8 <free>
80001884:	3b44a503          	lw	a0,948(s1)
80001888:	320010ef          	jal	80002ba8 <free>
8000188c:	3b042503          	lw	a0,944(s0)
80001890:	318010ef          	jal	80002ba8 <free>
80001894:	3ac9a503          	lw	a0,940(s3)
80001898:	310010ef          	jal	80002ba8 <free>
8000189c:	3a8a2503          	lw	a0,936(s4)
800018a0:	308010ef          	jal	80002ba8 <free>
800018a4:	03c12083          	lw	ra,60(sp)
800018a8:	03812403          	lw	s0,56(sp)
800018ac:	03412483          	lw	s1,52(sp)
800018b0:	03012903          	lw	s2,48(sp)
800018b4:	02c12983          	lw	s3,44(sp)
800018b8:	02812a03          	lw	s4,40(sp)
800018bc:	02412a83          	lw	s5,36(sp)
800018c0:	02012b03          	lw	s6,32(sp)
800018c4:	01c12b83          	lw	s7,28(sp)
800018c8:	01812c03          	lw	s8,24(sp)
800018cc:	00000513          	li	a0,0
800018d0:	04010113          	addi	sp,sp,64
800018d4:	00008067          	ret
800018d8:	80008537          	lui	a0,0x80008
800018dc:	04450513          	addi	a0,a0,68 # 80008044 <heap_top+0x1ef0>
800018e0:	6fd000ef          	jal	800027dc <printf>
800018e4:	00100513          	li	a0,1
800018e8:	140010ef          	jal	80002a28 <exit>
800018ec:	3b892783          	lw	a5,952(s2)
800018f0:	e35ff06f          	j	80001724 <main+0xc8>

800018f4 <crt0>:
800018f4:	ff010113          	addi	sp,sp,-16
800018f8:	00112623          	sw	ra,12(sp)
800018fc:	800082b7          	lui	t0,0x80008
80001900:	3a22ae23          	sw	sp,956(t0) # 800083bc <sp_store>
80001904:	800082b7          	lui	t0,0x80008
80001908:	37c2a103          	lw	sp,892(t0) # 8000837c <stack_top>
8000190c:	d51ff0ef          	jal	8000165c <main>
80001910:	800082b7          	lui	t0,0x80008
80001914:	3bc2a103          	lw	sp,956(t0) # 800083bc <sp_store>
80001918:	00c12083          	lw	ra,12(sp)
8000191c:	01010113          	addi	sp,sp,16
80001920:	00008067          	ret

80001924 <getchar>:
80001924:	ff010113          	addi	sp,sp,-16
80001928:	00112623          	sw	ra,12(sp)
8000192c:	461010ef          	jal	8000358c <inbyte>
80001930:	00c12083          	lw	ra,12(sp)
80001934:	01010113          	addi	sp,sp,16
80001938:	00008067          	ret

8000193c <putchar>:
8000193c:	ff010113          	addi	sp,sp,-16
80001940:	00812423          	sw	s0,8(sp)
80001944:	00050413          	mv	s0,a0
80001948:	0ff57513          	zext.b	a0,a0
8000194c:	00112623          	sw	ra,12(sp)
80001950:	461010ef          	jal	800035b0 <outbyte>
80001954:	00c12083          	lw	ra,12(sp)
80001958:	00040513          	mv	a0,s0
8000195c:	00812403          	lw	s0,8(sp)
80001960:	01010113          	addi	sp,sp,16
80001964:	00008067          	ret

80001968 <fputs>:
80001968:	800087b7          	lui	a5,0x80008
8000196c:	3847a783          	lw	a5,900(a5) # 80008384 <stdout>
80001970:	ff010113          	addi	sp,sp,-16
80001974:	00112623          	sw	ra,12(sp)
80001978:	00812423          	sw	s0,8(sp)
8000197c:	04b78a63          	beq	a5,a1,800019d0 <fputs+0x68>
80001980:	00912223          	sw	s1,4(sp)
80001984:	80008437          	lui	s0,0x80008
80001988:	800084b7          	lui	s1,0x80008
8000198c:	09440413          	addi	s0,s0,148 # 80008094 <heap_top+0x1f40>
80001990:	0bd48493          	addi	s1,s1,189 # 800080bd <heap_top+0x1f69>
80001994:	00a00513          	li	a0,10
80001998:	00140413          	addi	s0,s0,1
8000199c:	415010ef          	jal	800035b0 <outbyte>
800019a0:	00044503          	lbu	a0,0(s0)
800019a4:	fe941ae3          	bne	s0,s1,80001998 <fputs+0x30>
800019a8:	00a00513          	li	a0,10
800019ac:	405010ef          	jal	800035b0 <outbyte>
800019b0:	00412483          	lw	s1,4(sp)
800019b4:	00a00513          	li	a0,10
800019b8:	3f9010ef          	jal	800035b0 <outbyte>
800019bc:	00c12083          	lw	ra,12(sp)
800019c0:	00812403          	lw	s0,8(sp)
800019c4:	00a00513          	li	a0,10
800019c8:	01010113          	addi	sp,sp,16
800019cc:	00008067          	ret
800019d0:	00050413          	mv	s0,a0
800019d4:	00054503          	lbu	a0,0(a0)
800019d8:	fc050ee3          	beqz	a0,800019b4 <fputs+0x4c>
800019dc:	00140413          	addi	s0,s0,1
800019e0:	3d1010ef          	jal	800035b0 <outbyte>
800019e4:	00044503          	lbu	a0,0(s0)
800019e8:	fe051ae3          	bnez	a0,800019dc <fputs+0x74>
800019ec:	00a00513          	li	a0,10
800019f0:	3c1010ef          	jal	800035b0 <outbyte>
800019f4:	00c12083          	lw	ra,12(sp)
800019f8:	00812403          	lw	s0,8(sp)
800019fc:	00a00513          	li	a0,10
80001a00:	01010113          	addi	sp,sp,16
80001a04:	00008067          	ret

80001a08 <fgets>:
80001a08:	800087b7          	lui	a5,0x80008
80001a0c:	3887a783          	lw	a5,904(a5) # 80008388 <stdin>
80001a10:	ff010113          	addi	sp,sp,-16
80001a14:	00112623          	sw	ra,12(sp)
80001a18:	00812423          	sw	s0,8(sp)
80001a1c:	00912223          	sw	s1,4(sp)
80001a20:	06c79263          	bne	a5,a2,80001a84 <fgets+0x7c>
80001a24:	01212023          	sw	s2,0(sp)
80001a28:	00050413          	mv	s0,a0
80001a2c:	00050913          	mv	s2,a0
80001a30:	00b504b3          	add	s1,a0,a1
80001a34:	02058463          	beqz	a1,80001a5c <fgets+0x54>
80001a38:	355010ef          	jal	8000358c <inbyte>
80001a3c:	00a40023          	sb	a0,0(s0)
80001a40:	ff650713          	addi	a4,a0,-10
80001a44:	ff350793          	addi	a5,a0,-13
80001a48:	00070a63          	beqz	a4,80001a5c <fgets+0x54>
80001a4c:	00078863          	beqz	a5,80001a5c <fgets+0x54>
80001a50:	00140413          	addi	s0,s0,1
80001a54:	35d010ef          	jal	800035b0 <outbyte>
80001a58:	fe9410e3          	bne	s0,s1,80001a38 <fgets+0x30>
80001a5c:	00a00513          	li	a0,10
80001a60:	351010ef          	jal	800035b0 <outbyte>
80001a64:	00040023          	sb	zero,0(s0)
80001a68:	00c12083          	lw	ra,12(sp)
80001a6c:	00812403          	lw	s0,8(sp)
80001a70:	00412483          	lw	s1,4(sp)
80001a74:	00090513          	mv	a0,s2
80001a78:	00012903          	lw	s2,0(sp)
80001a7c:	01010113          	addi	sp,sp,16
80001a80:	00008067          	ret
80001a84:	80008437          	lui	s0,0x80008
80001a88:	800084b7          	lui	s1,0x80008
80001a8c:	0c040413          	addi	s0,s0,192 # 800080c0 <heap_top+0x1f6c>
80001a90:	0ea48493          	addi	s1,s1,234 # 800080ea <heap_top+0x1f96>
80001a94:	00a00513          	li	a0,10
80001a98:	00140413          	addi	s0,s0,1
80001a9c:	315010ef          	jal	800035b0 <outbyte>
80001aa0:	00044503          	lbu	a0,0(s0)
80001aa4:	fe941ae3          	bne	s0,s1,80001a98 <fgets+0x90>
80001aa8:	00a00513          	li	a0,10
80001aac:	305010ef          	jal	800035b0 <outbyte>
80001ab0:	00c12083          	lw	ra,12(sp)
80001ab4:	00812403          	lw	s0,8(sp)
80001ab8:	00412483          	lw	s1,4(sp)
80001abc:	00000513          	li	a0,0
80001ac0:	01010113          	addi	sp,sp,16
80001ac4:	00008067          	ret

80001ac8 <putd>:
80001ac8:	fc010113          	addi	sp,sp,-64
80001acc:	3b9ad7b7          	lui	a5,0x3b9ad
80001ad0:	02812c23          	sw	s0,56(sp)
80001ad4:	02912a23          	sw	s1,52(sp)
80001ad8:	00d03733          	snez	a4,a3
80001adc:	02112e23          	sw	ra,60(sp)
80001ae0:	03212823          	sw	s2,48(sp)
80001ae4:	9ff78793          	addi	a5,a5,-1537 # 3b9ac9ff <__heap_size+0x3b99f9ff>
80001ae8:	00068493          	mv	s1,a3
80001aec:	40e58433          	sub	s0,a1,a4
80001af0:	02a7e463          	bltu	a5,a0,80001b18 <putd+0x50>
80001af4:	05f5e7b7          	lui	a5,0x5f5e
80001af8:	0ff78793          	addi	a5,a5,255 # 5f5e0ff <__heap_size+0x5f510ff>
80001afc:	38a7e663          	bltu	a5,a0,80001e88 <putd+0x3c0>
80001b00:	009897b7          	lui	a5,0x989
80001b04:	67f78793          	addi	a5,a5,1663 # 98967f <__heap_size+0x97c67f>
80001b08:	38a7f663          	bgeu	a5,a0,80001e94 <putd+0x3cc>
80001b0c:	00050793          	mv	a5,a0
80001b10:	00000713          	li	a4,0
80001b14:	0780006f          	j	80001b8c <putd+0xc4>
80001b18:	000457b7          	lui	a5,0x45
80001b1c:	b8378793          	addi	a5,a5,-1149 # 44b83 <__heap_size+0x37b83>
80001b20:	00955713          	srli	a4,a0,0x9
80001b24:	02f73733          	mulhu	a4,a4,a5
80001b28:	3b9ad6b7          	lui	a3,0x3b9ad
80001b2c:	a0068693          	addi	a3,a3,-1536 # 3b9aca00 <__heap_size+0x3b99fa00>
80001b30:	05f5e5b7          	lui	a1,0x5f5e
80001b34:	0ff58593          	addi	a1,a1,255 # 5f5e0ff <__heap_size+0x5f510ff>
80001b38:	00775793          	srli	a5,a4,0x7
80001b3c:	02d787b3          	mul	a5,a5,a3
80001b40:	00775713          	srli	a4,a4,0x7
80001b44:	03070713          	addi	a4,a4,48
80001b48:	00e10823          	sb	a4,16(sp)
80001b4c:	40f507b3          	sub	a5,a0,a5
80001b50:	2ef5e663          	bltu	a1,a5,80001e3c <putd+0x374>
80001b54:	00078693          	mv	a3,a5
80001b58:	00100713          	li	a4,1
80001b5c:	55e645b7          	lui	a1,0x55e64
80001b60:	b8958593          	addi	a1,a1,-1143 # 55e63b89 <__heap_size+0x55e56b89>
80001b64:	02b6b6b3          	mulhu	a3,a3,a1
80001b68:	00270533          	add	a0,a4,sp
80001b6c:	009895b7          	lui	a1,0x989
80001b70:	67f58593          	addi	a1,a1,1663 # 98967f <__heap_size+0x97c67f>
80001b74:	00170713          	addi	a4,a4,1
80001b78:	0196d693          	srli	a3,a3,0x19
80001b7c:	03068693          	addi	a3,a3,48
80001b80:	00d50823          	sb	a3,16(a0)
80001b84:	00078693          	mv	a3,a5
80001b88:	02f5f463          	bgeu	a1,a5,80001bb0 <putd+0xe8>
80001b8c:	6b5fd5b7          	lui	a1,0x6b5fd
80001b90:	a6b58593          	addi	a1,a1,-1429 # 6b5fca6b <__heap_size+0x6b5efa6b>
80001b94:	02b7b5b3          	mulhu	a1,a5,a1
80001b98:	00989537          	lui	a0,0x989
80001b9c:	68050513          	addi	a0,a0,1664 # 989680 <__heap_size+0x97c680>
80001ba0:	00078693          	mv	a3,a5
80001ba4:	0165d593          	srli	a1,a1,0x16
80001ba8:	02a585b3          	mul	a1,a1,a0
80001bac:	40b787b3          	sub	a5,a5,a1
80001bb0:	6b5fd5b7          	lui	a1,0x6b5fd
80001bb4:	a6b58593          	addi	a1,a1,-1429 # 6b5fca6b <__heap_size+0x6b5efa6b>
80001bb8:	02b6b6b3          	mulhu	a3,a3,a1
80001bbc:	00270533          	add	a0,a4,sp
80001bc0:	000f45b7          	lui	a1,0xf4
80001bc4:	23f58593          	addi	a1,a1,575 # f423f <__heap_size+0xe723f>
80001bc8:	00170713          	addi	a4,a4,1
80001bcc:	0166d693          	srli	a3,a3,0x16
80001bd0:	03068693          	addi	a3,a3,48
80001bd4:	00d50823          	sb	a3,16(a0)
80001bd8:	00078693          	mv	a3,a5
80001bdc:	02f5f463          	bgeu	a1,a5,80001c04 <putd+0x13c>
80001be0:	431be5b7          	lui	a1,0x431be
80001be4:	e8358593          	addi	a1,a1,-381 # 431bde83 <__heap_size+0x431b0e83>
80001be8:	02b7b5b3          	mulhu	a1,a5,a1
80001bec:	000f4537          	lui	a0,0xf4
80001bf0:	24050513          	addi	a0,a0,576 # f4240 <__heap_size+0xe7240>
80001bf4:	00078693          	mv	a3,a5
80001bf8:	0125d593          	srli	a1,a1,0x12
80001bfc:	02a585b3          	mul	a1,a1,a0
80001c00:	40b787b3          	sub	a5,a5,a1
80001c04:	431be5b7          	lui	a1,0x431be
80001c08:	e8358593          	addi	a1,a1,-381 # 431bde83 <__heap_size+0x431b0e83>
80001c0c:	02b6b6b3          	mulhu	a3,a3,a1
80001c10:	00270533          	add	a0,a4,sp
80001c14:	000185b7          	lui	a1,0x18
80001c18:	69f58593          	addi	a1,a1,1695 # 1869f <__heap_size+0xb69f>
80001c1c:	00170713          	addi	a4,a4,1
80001c20:	0126d693          	srli	a3,a3,0x12
80001c24:	03068693          	addi	a3,a3,48
80001c28:	00d50823          	sb	a3,16(a0)
80001c2c:	00078693          	mv	a3,a5
80001c30:	02f5f663          	bgeu	a1,a5,80001c5c <putd+0x194>
80001c34:	0a7c66b7          	lui	a3,0xa7c6
80001c38:	ac568693          	addi	a3,a3,-1339 # a7c5ac5 <__heap_size+0xa7b8ac5>
80001c3c:	0057d593          	srli	a1,a5,0x5
80001c40:	02d5b5b3          	mulhu	a1,a1,a3
80001c44:	00018537          	lui	a0,0x18
80001c48:	6a050513          	addi	a0,a0,1696 # 186a0 <__heap_size+0xb6a0>
80001c4c:	00078693          	mv	a3,a5
80001c50:	0075d593          	srli	a1,a1,0x7
80001c54:	02a585b3          	mul	a1,a1,a0
80001c58:	40b787b3          	sub	a5,a5,a1
80001c5c:	0a7c65b7          	lui	a1,0xa7c6
80001c60:	ac558593          	addi	a1,a1,-1339 # a7c5ac5 <__heap_size+0xa7b8ac5>
80001c64:	0056d693          	srli	a3,a3,0x5
80001c68:	02b6b6b3          	mulhu	a3,a3,a1
80001c6c:	00270533          	add	a0,a4,sp
80001c70:	000025b7          	lui	a1,0x2
80001c74:	70f58593          	addi	a1,a1,1807 # 270f <__stack_size+0x170f>
80001c78:	00170713          	addi	a4,a4,1
80001c7c:	0076d693          	srli	a3,a3,0x7
80001c80:	03068693          	addi	a3,a3,48
80001c84:	00d50823          	sb	a3,16(a0)
80001c88:	00078693          	mv	a3,a5
80001c8c:	02f5f463          	bgeu	a1,a5,80001cb4 <putd+0x1ec>
80001c90:	d1b715b7          	lui	a1,0xd1b71
80001c94:	75958593          	addi	a1,a1,1881 # d1b71759 <__stack_top+0x51b5b389>
80001c98:	02b7b5b3          	mulhu	a1,a5,a1
80001c9c:	00002537          	lui	a0,0x2
80001ca0:	71050513          	addi	a0,a0,1808 # 2710 <__stack_size+0x1710>
80001ca4:	00078693          	mv	a3,a5
80001ca8:	00d5d593          	srli	a1,a1,0xd
80001cac:	02a585b3          	mul	a1,a1,a0
80001cb0:	40b787b3          	sub	a5,a5,a1
80001cb4:	d1b715b7          	lui	a1,0xd1b71
80001cb8:	75958593          	addi	a1,a1,1881 # d1b71759 <__stack_top+0x51b5b389>
80001cbc:	02b6b6b3          	mulhu	a3,a3,a1
80001cc0:	00270533          	add	a0,a4,sp
80001cc4:	3e700593          	li	a1,999
80001cc8:	00170713          	addi	a4,a4,1
80001ccc:	00d6d693          	srli	a3,a3,0xd
80001cd0:	03068693          	addi	a3,a3,48
80001cd4:	00d50823          	sb	a3,16(a0)
80001cd8:	00078693          	mv	a3,a5
80001cdc:	02f5f263          	bgeu	a1,a5,80001d00 <putd+0x238>
80001ce0:	106255b7          	lui	a1,0x10625
80001ce4:	dd358593          	addi	a1,a1,-557 # 10624dd3 <__heap_size+0x10617dd3>
80001ce8:	02b7b5b3          	mulhu	a1,a5,a1
80001cec:	3e800513          	li	a0,1000
80001cf0:	00078693          	mv	a3,a5
80001cf4:	0065d593          	srli	a1,a1,0x6
80001cf8:	02a585b3          	mul	a1,a1,a0
80001cfc:	40b787b3          	sub	a5,a5,a1
80001d00:	106255b7          	lui	a1,0x10625
80001d04:	dd358593          	addi	a1,a1,-557 # 10624dd3 <__heap_size+0x10617dd3>
80001d08:	02b6b6b3          	mulhu	a3,a3,a1
80001d0c:	00270533          	add	a0,a4,sp
80001d10:	06300593          	li	a1,99
80001d14:	00170713          	addi	a4,a4,1
80001d18:	0066d693          	srli	a3,a3,0x6
80001d1c:	03068693          	addi	a3,a3,48
80001d20:	00d50823          	sb	a3,16(a0)
80001d24:	00078693          	mv	a3,a5
80001d28:	02f5f263          	bgeu	a1,a5,80001d4c <putd+0x284>
80001d2c:	51eb85b7          	lui	a1,0x51eb8
80001d30:	51f58593          	addi	a1,a1,1311 # 51eb851f <__heap_size+0x51eab51f>
80001d34:	02b7b5b3          	mulhu	a1,a5,a1
80001d38:	06400513          	li	a0,100
80001d3c:	00078693          	mv	a3,a5
80001d40:	0055d593          	srli	a1,a1,0x5
80001d44:	02a585b3          	mul	a1,a1,a0
80001d48:	40b787b3          	sub	a5,a5,a1
80001d4c:	51eb85b7          	lui	a1,0x51eb8
80001d50:	51f58593          	addi	a1,a1,1311 # 51eb851f <__heap_size+0x51eab51f>
80001d54:	02b6b6b3          	mulhu	a3,a3,a1
80001d58:	00270533          	add	a0,a4,sp
80001d5c:	00900593          	li	a1,9
80001d60:	00170713          	addi	a4,a4,1
80001d64:	0056d693          	srli	a3,a3,0x5
80001d68:	03068693          	addi	a3,a3,48
80001d6c:	00d50823          	sb	a3,16(a0)
80001d70:	00078693          	mv	a3,a5
80001d74:	02f5f463          	bgeu	a1,a5,80001d9c <putd+0x2d4>
80001d78:	ccccd5b7          	lui	a1,0xccccd
80001d7c:	ccd58593          	addi	a1,a1,-819 # cccccccd <__stack_top+0x4ccb68fd>
80001d80:	02b7b5b3          	mulhu	a1,a5,a1
80001d84:	00078693          	mv	a3,a5
80001d88:	0035d593          	srli	a1,a1,0x3
80001d8c:	00259513          	slli	a0,a1,0x2
80001d90:	00b505b3          	add	a1,a0,a1
80001d94:	00159593          	slli	a1,a1,0x1
80001d98:	40b787b3          	sub	a5,a5,a1
80001d9c:	ccccd5b7          	lui	a1,0xccccd
80001da0:	ccd58593          	addi	a1,a1,-819 # cccccccd <__stack_top+0x4ccb68fd>
80001da4:	02b6b6b3          	mulhu	a3,a3,a1
80001da8:	002705b3          	add	a1,a4,sp
80001dac:	00170713          	addi	a4,a4,1
80001db0:	0036d693          	srli	a3,a3,0x3
80001db4:	03068693          	addi	a3,a3,48
80001db8:	00d58823          	sb	a3,16(a1)
80001dbc:	03078793          	addi	a5,a5,48
80001dc0:	002706b3          	add	a3,a4,sp
80001dc4:	00f68823          	sb	a5,16(a3)
80001dc8:	00170793          	addi	a5,a4,1
80001dcc:	01014703          	lbu	a4,16(sp)
80001dd0:	00078913          	mv	s2,a5
80001dd4:	00e10823          	sb	a4,16(sp)
80001dd8:	00278733          	add	a4,a5,sp
80001ddc:	00070823          	sb	zero,16(a4)
80001de0:	fff40413          	addi	s0,s0,-1
80001de4:	08061263          	bnez	a2,80001e68 <putd+0x3a0>
80001de8:	03312623          	sw	s3,44(sp)
80001dec:	fff78993          	addi	s3,a5,-1
80001df0:	00f44a63          	blt	s0,a5,80001e04 <putd+0x33c>
80001df4:	02000513          	li	a0,32
80001df8:	fff40413          	addi	s0,s0,-1
80001dfc:	7b4010ef          	jal	800035b0 <outbyte>
80001e00:	ff341ae3          	bne	s0,s3,80001df4 <putd+0x32c>
80001e04:	12049263          	bnez	s1,80001f28 <putd+0x460>
80001e08:	02c12983          	lw	s3,44(sp)
80001e0c:	01010413          	addi	s0,sp,16
80001e10:	00890933          	add	s2,s2,s0
80001e14:	00044503          	lbu	a0,0(s0)
80001e18:	00140413          	addi	s0,s0,1
80001e1c:	794010ef          	jal	800035b0 <outbyte>
80001e20:	ff241ae3          	bne	s0,s2,80001e14 <putd+0x34c>
80001e24:	03c12083          	lw	ra,60(sp)
80001e28:	03812403          	lw	s0,56(sp)
80001e2c:	03412483          	lw	s1,52(sp)
80001e30:	03012903          	lw	s2,48(sp)
80001e34:	04010113          	addi	sp,sp,64
80001e38:	00008067          	ret
80001e3c:	00100713          	li	a4,1
80001e40:	55e645b7          	lui	a1,0x55e64
80001e44:	b8958593          	addi	a1,a1,-1143 # 55e63b89 <__heap_size+0x55e56b89>
80001e48:	02b7b5b3          	mulhu	a1,a5,a1
80001e4c:	05f5e537          	lui	a0,0x5f5e
80001e50:	10050513          	addi	a0,a0,256 # 5f5e100 <__heap_size+0x5f51100>
80001e54:	00078693          	mv	a3,a5
80001e58:	0195d593          	srli	a1,a1,0x19
80001e5c:	02a585b3          	mul	a1,a1,a0
80001e60:	40b787b3          	sub	a5,a5,a1
80001e64:	cf9ff06f          	j	80001b5c <putd+0x94>
80001e68:	0c049863          	bnez	s1,80001f38 <putd+0x470>
80001e6c:	fff78493          	addi	s1,a5,-1
80001e70:	f8f44ee3          	blt	s0,a5,80001e0c <putd+0x344>
80001e74:	03000513          	li	a0,48
80001e78:	fff40413          	addi	s0,s0,-1
80001e7c:	734010ef          	jal	800035b0 <outbyte>
80001e80:	fe941ae3          	bne	s0,s1,80001e74 <putd+0x3ac>
80001e84:	f89ff06f          	j	80001e0c <putd+0x344>
80001e88:	00050793          	mv	a5,a0
80001e8c:	00000713          	li	a4,0
80001e90:	fb1ff06f          	j	80001e40 <putd+0x378>
80001e94:	000f47b7          	lui	a5,0xf4
80001e98:	23f78793          	addi	a5,a5,575 # f423f <__heap_size+0xe723f>
80001e9c:	00a7f863          	bgeu	a5,a0,80001eac <putd+0x3e4>
80001ea0:	00050793          	mv	a5,a0
80001ea4:	00000713          	li	a4,0
80001ea8:	d39ff06f          	j	80001be0 <putd+0x118>
80001eac:	000187b7          	lui	a5,0x18
80001eb0:	69f78793          	addi	a5,a5,1695 # 1869f <__heap_size+0xb69f>
80001eb4:	00a7f863          	bgeu	a5,a0,80001ec4 <putd+0x3fc>
80001eb8:	00050793          	mv	a5,a0
80001ebc:	00000713          	li	a4,0
80001ec0:	d75ff06f          	j	80001c34 <putd+0x16c>
80001ec4:	000027b7          	lui	a5,0x2
80001ec8:	70f78793          	addi	a5,a5,1807 # 270f <__stack_size+0x170f>
80001ecc:	00a7f863          	bgeu	a5,a0,80001edc <putd+0x414>
80001ed0:	00050793          	mv	a5,a0
80001ed4:	00000713          	li	a4,0
80001ed8:	db9ff06f          	j	80001c90 <putd+0x1c8>
80001edc:	3e700793          	li	a5,999
80001ee0:	00a7f863          	bgeu	a5,a0,80001ef0 <putd+0x428>
80001ee4:	00050793          	mv	a5,a0
80001ee8:	00000713          	li	a4,0
80001eec:	df5ff06f          	j	80001ce0 <putd+0x218>
80001ef0:	06300793          	li	a5,99
80001ef4:	00a7f863          	bgeu	a5,a0,80001f04 <putd+0x43c>
80001ef8:	00050793          	mv	a5,a0
80001efc:	00000713          	li	a4,0
80001f00:	e2dff06f          	j	80001d2c <putd+0x264>
80001f04:	00900793          	li	a5,9
80001f08:	00a7f863          	bgeu	a5,a0,80001f18 <putd+0x450>
80001f0c:	00050793          	mv	a5,a0
80001f10:	00000713          	li	a4,0
80001f14:	e65ff06f          	j	80001d78 <putd+0x2b0>
80001f18:	02050a63          	beqz	a0,80001f4c <putd+0x484>
80001f1c:	00050793          	mv	a5,a0
80001f20:	00000713          	li	a4,0
80001f24:	e99ff06f          	j	80001dbc <putd+0x2f4>
80001f28:	02d00513          	li	a0,45
80001f2c:	684010ef          	jal	800035b0 <outbyte>
80001f30:	02c12983          	lw	s3,44(sp)
80001f34:	ed9ff06f          	j	80001e0c <putd+0x344>
80001f38:	02d00513          	li	a0,45
80001f3c:	00f12623          	sw	a5,12(sp)
80001f40:	670010ef          	jal	800035b0 <outbyte>
80001f44:	00c12783          	lw	a5,12(sp)
80001f48:	f25ff06f          	j	80001e6c <putd+0x3a4>
80001f4c:	00100913          	li	s2,1
80001f50:	00090793          	mv	a5,s2
80001f54:	03000713          	li	a4,48
80001f58:	e7dff06f          	j	80001dd4 <putd+0x30c>

80001f5c <putx>:
80001f5c:	01f6d893          	srli	a7,a3,0x1f
80001f60:	80008837          	lui	a6,0x80008
80001f64:	80008737          	lui	a4,0x80008
80001f68:	fd010113          	addi	sp,sp,-48
80001f6c:	011687b3          	add	a5,a3,a7
80001f70:	0ec80813          	addi	a6,a6,236 # 800080ec <heap_top+0x1f98>
80001f74:	10070713          	addi	a4,a4,256 # 80008100 <heap_top+0x1fac>
80001f78:	0017f793          	andi	a5,a5,1
80001f7c:	02112623          	sw	ra,44(sp)
80001f80:	02812423          	sw	s0,40(sp)
80001f84:	02912223          	sw	s1,36(sp)
80001f88:	03212023          	sw	s2,32(sp)
80001f8c:	01c55313          	srli	t1,a0,0x1c
80001f90:	01012623          	sw	a6,12(sp)
80001f94:	00e12823          	sw	a4,16(sp)
80001f98:	411787b3          	sub	a5,a5,a7
80001f9c:	1a030463          	beqz	t1,80002144 <putx+0x1e8>
80001fa0:	00451513          	slli	a0,a0,0x4
80001fa4:	00455513          	srli	a0,a0,0x4
80001fa8:	00000813          	li	a6,0
80001fac:	00c10693          	addi	a3,sp,12
80001fb0:	00279713          	slli	a4,a5,0x2
80001fb4:	00e688b3          	add	a7,a3,a4
80001fb8:	0008ae03          	lw	t3,0(a7)
80001fbc:	01855893          	srli	a7,a0,0x18
80001fc0:	006e0333          	add	t1,t3,t1
80001fc4:	00034303          	lbu	t1,0(t1)
80001fc8:	00610a23          	sb	t1,20(sp)
80001fcc:	26089663          	bnez	a7,80002238 <putx+0x2dc>
80001fd0:	00100493          	li	s1,1
80001fd4:	18080c63          	beqz	a6,8000216c <putx+0x210>
80001fd8:	18061a63          	bnez	a2,8000216c <putx+0x210>
80001fdc:	01455693          	srli	a3,a0,0x14
80001fe0:	1a068863          	beqz	a3,80002190 <putx+0x234>
80001fe4:	00c51513          	slli	a0,a0,0xc
80001fe8:	00c55513          	srli	a0,a0,0xc
80001fec:	00000813          	li	a6,0
80001ff0:	00279713          	slli	a4,a5,0x2
80001ff4:	00270733          	add	a4,a4,sp
80001ff8:	00c72703          	lw	a4,12(a4)
80001ffc:	00d70733          	add	a4,a4,a3
80002000:	00074683          	lbu	a3,0(a4)
80002004:	00248733          	add	a4,s1,sp
80002008:	00148493          	addi	s1,s1,1
8000200c:	00d70a23          	sb	a3,20(a4)
80002010:	01055693          	srli	a3,a0,0x10
80002014:	18068663          	beqz	a3,800021a0 <putx+0x244>
80002018:	01051513          	slli	a0,a0,0x10
8000201c:	01055513          	srli	a0,a0,0x10
80002020:	00000813          	li	a6,0
80002024:	00279713          	slli	a4,a5,0x2
80002028:	00270733          	add	a4,a4,sp
8000202c:	00c72703          	lw	a4,12(a4)
80002030:	00c55313          	srli	t1,a0,0xc
80002034:	00d70733          	add	a4,a4,a3
80002038:	00074683          	lbu	a3,0(a4)
8000203c:	00248733          	add	a4,s1,sp
80002040:	00148493          	addi	s1,s1,1
80002044:	00d70a23          	sb	a3,20(a4)
80002048:	16030463          	beqz	t1,800021b0 <putx+0x254>
8000204c:	01451513          	slli	a0,a0,0x14
80002050:	01455513          	srli	a0,a0,0x14
80002054:	00000813          	li	a6,0
80002058:	00c10693          	addi	a3,sp,12
8000205c:	00279713          	slli	a4,a5,0x2
80002060:	00e688b3          	add	a7,a3,a4
80002064:	0008ae03          	lw	t3,0(a7)
80002068:	00248eb3          	add	t4,s1,sp
8000206c:	00855893          	srli	a7,a0,0x8
80002070:	006e0333          	add	t1,t3,t1
80002074:	00034303          	lbu	t1,0(t1)
80002078:	00148493          	addi	s1,s1,1
8000207c:	006e8a23          	sb	t1,20(t4)
80002080:	1a088663          	beqz	a7,8000222c <putx+0x2d0>
80002084:	0ff57513          	zext.b	a0,a0
80002088:	00000813          	li	a6,0
8000208c:	00e686b3          	add	a3,a3,a4
80002090:	0006a703          	lw	a4,0(a3)
80002094:	002486b3          	add	a3,s1,sp
80002098:	00148493          	addi	s1,s1,1
8000209c:	01170733          	add	a4,a4,a7
800020a0:	00074703          	lbu	a4,0(a4)
800020a4:	00e68a23          	sb	a4,20(a3)
800020a8:	00455893          	srli	a7,a0,0x4
800020ac:	12088063          	beqz	a7,800021cc <putx+0x270>
800020b0:	00f57513          	andi	a0,a0,15
800020b4:	00000813          	li	a6,0
800020b8:	00279713          	slli	a4,a5,0x2
800020bc:	00c10693          	addi	a3,sp,12
800020c0:	00e687b3          	add	a5,a3,a4
800020c4:	0007a783          	lw	a5,0(a5)
800020c8:	00248333          	add	t1,s1,sp
800020cc:	00148913          	addi	s2,s1,1
800020d0:	011787b3          	add	a5,a5,a7
800020d4:	0007c783          	lbu	a5,0(a5)
800020d8:	00f30a23          	sb	a5,20(t1)
800020dc:	10051463          	bnez	a0,800021e4 <putx+0x288>
800020e0:	10080263          	beqz	a6,800021e4 <putx+0x288>
800020e4:	10061063          	bnez	a2,800021e4 <putx+0x288>
800020e8:	002907b3          	add	a5,s2,sp
800020ec:	fff58413          	addi	s0,a1,-1
800020f0:	00078a23          	sb	zero,20(a5)
800020f4:	00090493          	mv	s1,s2
800020f8:	01244e63          	blt	s0,s2,80002114 <putx+0x1b8>
800020fc:	fff48913          	addi	s2,s1,-1
80002100:	02000513          	li	a0,32
80002104:	fff40413          	addi	s0,s0,-1
80002108:	4a8010ef          	jal	800035b0 <outbyte>
8000210c:	fe891ae3          	bne	s2,s0,80002100 <putx+0x1a4>
80002110:	00048e63          	beqz	s1,8000212c <putx+0x1d0>
80002114:	01410413          	addi	s0,sp,20
80002118:	008484b3          	add	s1,s1,s0
8000211c:	00044503          	lbu	a0,0(s0)
80002120:	00140413          	addi	s0,s0,1
80002124:	48c010ef          	jal	800035b0 <outbyte>
80002128:	fe941ae3          	bne	s0,s1,8000211c <putx+0x1c0>
8000212c:	02c12083          	lw	ra,44(sp)
80002130:	02812403          	lw	s0,40(sp)
80002134:	02412483          	lw	s1,36(sp)
80002138:	02012903          	lw	s2,32(sp)
8000213c:	03010113          	addi	sp,sp,48
80002140:	00008067          	ret
80002144:	10061a63          	bnez	a2,80002258 <putx+0x2fc>
80002148:	01855893          	srli	a7,a0,0x18
8000214c:	00000493          	li	s1,0
80002150:	00100813          	li	a6,1
80002154:	e80884e3          	beqz	a7,80001fdc <putx+0x80>
80002158:	00c10693          	addi	a3,sp,12
8000215c:	00279713          	slli	a4,a5,0x2
80002160:	00851513          	slli	a0,a0,0x8
80002164:	00855513          	srli	a0,a0,0x8
80002168:	00000813          	li	a6,0
8000216c:	00e686b3          	add	a3,a3,a4
80002170:	0006a703          	lw	a4,0(a3)
80002174:	002486b3          	add	a3,s1,sp
80002178:	00148493          	addi	s1,s1,1
8000217c:	01170733          	add	a4,a4,a7
80002180:	00074703          	lbu	a4,0(a4)
80002184:	00e68a23          	sb	a4,20(a3)
80002188:	01455693          	srli	a3,a0,0x14
8000218c:	e4069ce3          	bnez	a3,80001fe4 <putx+0x88>
80002190:	e60800e3          	beqz	a6,80001ff0 <putx+0x94>
80002194:	e4061ee3          	bnez	a2,80001ff0 <putx+0x94>
80002198:	01055693          	srli	a3,a0,0x10
8000219c:	e6069ee3          	bnez	a3,80002018 <putx+0xbc>
800021a0:	e80802e3          	beqz	a6,80002024 <putx+0xc8>
800021a4:	e80610e3          	bnez	a2,80002024 <putx+0xc8>
800021a8:	00c55313          	srli	t1,a0,0xc
800021ac:	ea0310e3          	bnez	t1,8000204c <putx+0xf0>
800021b0:	ea0804e3          	beqz	a6,80002058 <putx+0xfc>
800021b4:	ea0612e3          	bnez	a2,80002058 <putx+0xfc>
800021b8:	00855893          	srli	a7,a0,0x8
800021bc:	ee0886e3          	beqz	a7,800020a8 <putx+0x14c>
800021c0:	00c10693          	addi	a3,sp,12
800021c4:	00279713          	slli	a4,a5,0x2
800021c8:	ebdff06f          	j	80002084 <putx+0x128>
800021cc:	ee0806e3          	beqz	a6,800020b8 <putx+0x15c>
800021d0:	ee0614e3          	bnez	a2,800020b8 <putx+0x15c>
800021d4:	06050663          	beqz	a0,80002240 <putx+0x2e4>
800021d8:	00048913          	mv	s2,s1
800021dc:	00279713          	slli	a4,a5,0x2
800021e0:	00c10693          	addi	a3,sp,12
800021e4:	00e686b3          	add	a3,a3,a4
800021e8:	0006a783          	lw	a5,0(a3)
800021ec:	00190493          	addi	s1,s2,1
800021f0:	00248733          	add	a4,s1,sp
800021f4:	00a787b3          	add	a5,a5,a0
800021f8:	0007c683          	lbu	a3,0(a5)
800021fc:	002907b3          	add	a5,s2,sp
80002200:	fff58413          	addi	s0,a1,-1
80002204:	00d78a23          	sb	a3,20(a5)
80002208:	00070a23          	sb	zero,20(a4)
8000220c:	f09444e3          	blt	s0,s1,80002114 <putx+0x1b8>
80002210:	ee0606e3          	beqz	a2,800020fc <putx+0x1a0>
80002214:	03000513          	li	a0,48
80002218:	fff40413          	addi	s0,s0,-1
8000221c:	394010ef          	jal	800035b0 <outbyte>
80002220:	ff241ae3          	bne	s0,s2,80002214 <putx+0x2b8>
80002224:	ee0498e3          	bnez	s1,80002114 <putx+0x1b8>
80002228:	f05ff06f          	j	8000212c <putx+0x1d0>
8000222c:	e60800e3          	beqz	a6,8000208c <putx+0x130>
80002230:	e6060ce3          	beqz	a2,800020a8 <putx+0x14c>
80002234:	e59ff06f          	j	8000208c <putx+0x130>
80002238:	00100493          	li	s1,1
8000223c:	f25ff06f          	j	80002160 <putx+0x204>
80002240:	002487b3          	add	a5,s1,sp
80002244:	fff58413          	addi	s0,a1,-1
80002248:	00078a23          	sb	zero,20(a5)
8000224c:	ea9458e3          	bge	s0,s1,800020fc <putx+0x1a0>
80002250:	ec0492e3          	bnez	s1,80002114 <putx+0x1b8>
80002254:	ed9ff06f          	j	8000212c <putx+0x1d0>
80002258:	00100813          	li	a6,1
8000225c:	d51ff06f          	j	80001fac <putx+0x50>

80002260 <putld>:
80002260:	f9010113          	addi	sp,sp,-112
80002264:	05312e23          	sw	s3,92(sp)
80002268:	05612823          	sw	s6,80(sp)
8000226c:	06112623          	sw	ra,108(sp)
80002270:	06812423          	sw	s0,104(sp)
80002274:	06912223          	sw	s1,100(sp)
80002278:	07212023          	sw	s2,96(sp)
8000227c:	05412c23          	sw	s4,88(sp)
80002280:	05512a23          	sw	s5,84(sp)
80002284:	05712623          	sw	s7,76(sp)
80002288:	05812423          	sw	s8,72(sp)
8000228c:	05912223          	sw	s9,68(sp)
80002290:	05a12023          	sw	s10,64(sp)
80002294:	03b12e23          	sw	s11,60(sp)
80002298:	00c12223          	sw	a2,4(sp)
8000229c:	00d12623          	sw	a3,12(sp)
800022a0:	00050b13          	mv	s6,a0
800022a4:	00058993          	mv	s3,a1
800022a8:	24071663          	bnez	a4,800024f4 <putld+0x294>
800022ac:	2405d463          	bgez	a1,800024f4 <putld+0x294>
800022b0:	00a037b3          	snez	a5,a0
800022b4:	40b009b3          	neg	s3,a1
800022b8:	fff60713          	addi	a4,a2,-1
800022bc:	40f989b3          	sub	s3,s3,a5
800022c0:	00100793          	li	a5,1
800022c4:	00e12223          	sw	a4,4(sp)
800022c8:	40a00b33          	neg	s6,a0
800022cc:	00f12423          	sw	a5,8(sp)
800022d0:	01634437          	lui	s0,0x1634
800022d4:	ccccdcb7          	lui	s9,0xccccd
800022d8:	ccccdc37          	lui	s8,0xccccd
800022dc:	57840413          	addi	s0,s0,1400 # 1634578 <__heap_size+0x1627578>
800022e0:	ccdc8c93          	addi	s9,s9,-819 # cccccccd <__stack_top+0x4ccb68fd>
800022e4:	cccc0c13          	addi	s8,s8,-820 # cccccccc <__stack_top+0x4ccb68fc>
800022e8:	01200d93          	li	s11,18
800022ec:	5d8a0a37          	lui	s4,0x5d8a0
800022f0:	000b0493          	mv	s1,s6
800022f4:	00098913          	mv	s2,s3
800022f8:	000a0613          	mv	a2,s4
800022fc:	00040693          	mv	a3,s0
80002300:	000b0513          	mv	a0,s6
80002304:	00098593          	mv	a1,s3
80002308:	2f4010ef          	jal	800035fc <__udivdi3>
8000230c:	008a07b3          	add	a5,s4,s0
80002310:	0147b733          	sltu	a4,a5,s4
80002314:	00e787b3          	add	a5,a5,a4
80002318:	0397b5b3          	mulhu	a1,a5,s9
8000231c:	000a0a93          	mv	s5,s4
80002320:	00040b93          	mv	s7,s0
80002324:	00050713          	mv	a4,a0
80002328:	0025d693          	srli	a3,a1,0x2
8000232c:	ffc5f593          	andi	a1,a1,-4
80002330:	00d585b3          	add	a1,a1,a3
80002334:	40b787b3          	sub	a5,a5,a1
80002338:	40fa07b3          	sub	a5,s4,a5
8000233c:	00fa36b3          	sltu	a3,s4,a5
80002340:	40d406b3          	sub	a3,s0,a3
80002344:	038785b3          	mul	a1,a5,s8
80002348:	039686b3          	mul	a3,a3,s9
8000234c:	0397b633          	mulhu	a2,a5,s9
80002350:	00b686b3          	add	a3,a3,a1
80002354:	039787b3          	mul	a5,a5,s9
80002358:	00c686b3          	add	a3,a3,a2
8000235c:	01f69613          	slli	a2,a3,0x1f
80002360:	0016d413          	srli	s0,a3,0x1
80002364:	0017d793          	srli	a5,a5,0x1
80002368:	00f60a33          	add	s4,a2,a5
8000236c:	0e050263          	beqz	a0,80002450 <putld+0x1f0>
80002370:	ccccdd37          	lui	s10,0xccccd
80002374:	ccccd9b7          	lui	s3,0xccccd
80002378:	ccdd0d13          	addi	s10,s10,-819 # cccccccd <__stack_top+0x4ccb68fd>
8000237c:	ccc98993          	addi	s3,s3,-820 # cccccccc <__stack_top+0x4ccb68fc>
80002380:	00000c93          	li	s9,0
80002384:	02eb8b33          	mul	s6,s7,a4
80002388:	000c8893          	mv	a7,s9
8000238c:	00040b93          	mv	s7,s0
80002390:	035737b3          	mulhu	a5,a4,s5
80002394:	03570c33          	mul	s8,a4,s5
80002398:	00fb0b33          	add	s6,s6,a5
8000239c:	41690b33          	sub	s6,s2,s6
800023a0:	000a0a93          	mv	s5,s4
800023a4:	41848c33          	sub	s8,s1,s8
800023a8:	0184b4b3          	sltu	s1,s1,s8
800023ac:	409b0b33          	sub	s6,s6,s1
800023b0:	000b0913          	mv	s2,s6
800023b4:	000c0493          	mv	s1,s8
800023b8:	002888b3          	add	a7,a7,sp
800023bc:	03070713          	addi	a4,a4,48
800023c0:	00e88c23          	sb	a4,24(a7)
800023c4:	fffd8d93          	addi	s11,s11,-1
800023c8:	000a8613          	mv	a2,s5
800023cc:	000b8693          	mv	a3,s7
800023d0:	000c0513          	mv	a0,s8
800023d4:	000b0593          	mv	a1,s6
800023d8:	001c8c93          	addi	s9,s9,1
800023dc:	120d8063          	beqz	s11,800024fc <putld+0x29c>
800023e0:	21c010ef          	jal	800035fc <__udivdi3>
800023e4:	017a87b3          	add	a5,s5,s7
800023e8:	0157b733          	sltu	a4,a5,s5
800023ec:	00e787b3          	add	a5,a5,a4
800023f0:	03a7b6b3          	mulhu	a3,a5,s10
800023f4:	00050713          	mv	a4,a0
800023f8:	000c8893          	mv	a7,s9
800023fc:	0026d613          	srli	a2,a3,0x2
80002400:	ffc6f693          	andi	a3,a3,-4
80002404:	00c686b3          	add	a3,a3,a2
80002408:	40d787b3          	sub	a5,a5,a3
8000240c:	40fa87b3          	sub	a5,s5,a5
80002410:	00fab833          	sltu	a6,s5,a5
80002414:	410b8833          	sub	a6,s7,a6
80002418:	033786b3          	mul	a3,a5,s3
8000241c:	03a80833          	mul	a6,a6,s10
80002420:	00d80833          	add	a6,a6,a3
80002424:	03a7b6b3          	mulhu	a3,a5,s10
80002428:	03a787b3          	mul	a5,a5,s10
8000242c:	00d80833          	add	a6,a6,a3
80002430:	01f81613          	slli	a2,a6,0x1f
80002434:	00185413          	srli	s0,a6,0x1
80002438:	0017d793          	srli	a5,a5,0x1
8000243c:	00f60a33          	add	s4,a2,a5
80002440:	f40512e3          	bnez	a0,80002384 <putld+0x124>
80002444:	00f60ab3          	add	s5,a2,a5
80002448:	00040b93          	mv	s7,s0
8000244c:	f6dff06f          	j	800023b8 <putld+0x158>
80002450:	fffd8d93          	addi	s11,s11,-1
80002454:	ea0d92e3          	bnez	s11,800022f8 <putld+0x98>
80002458:	00100493          	li	s1,1
8000245c:	03000793          	li	a5,48
80002460:	00048c93          	mv	s9,s1
80002464:	00f10c23          	sb	a5,24(sp)
80002468:	002c87b3          	add	a5,s9,sp
8000246c:	00078c23          	sb	zero,24(a5)
80002470:	00412783          	lw	a5,4(sp)
80002474:	fff78413          	addi	s0,a5,-1
80002478:	00c12783          	lw	a5,12(sp)
8000247c:	0a078263          	beqz	a5,80002520 <putld+0x2c0>
80002480:	00812783          	lw	a5,8(sp)
80002484:	0c079463          	bnez	a5,8000254c <putld+0x2ec>
80002488:	fffc8913          	addi	s2,s9,-1
8000248c:	01944a63          	blt	s0,s9,800024a0 <putld+0x240>
80002490:	03000513          	li	a0,48
80002494:	fff40413          	addi	s0,s0,-1
80002498:	118010ef          	jal	800035b0 <outbyte>
8000249c:	ff241ae3          	bne	s0,s2,80002490 <putld+0x230>
800024a0:	01810413          	addi	s0,sp,24
800024a4:	009404b3          	add	s1,s0,s1
800024a8:	00044503          	lbu	a0,0(s0)
800024ac:	00140413          	addi	s0,s0,1
800024b0:	100010ef          	jal	800035b0 <outbyte>
800024b4:	fe941ae3          	bne	s0,s1,800024a8 <putld+0x248>
800024b8:	06c12083          	lw	ra,108(sp)
800024bc:	06812403          	lw	s0,104(sp)
800024c0:	06412483          	lw	s1,100(sp)
800024c4:	06012903          	lw	s2,96(sp)
800024c8:	05c12983          	lw	s3,92(sp)
800024cc:	05812a03          	lw	s4,88(sp)
800024d0:	05412a83          	lw	s5,84(sp)
800024d4:	05012b03          	lw	s6,80(sp)
800024d8:	04c12b83          	lw	s7,76(sp)
800024dc:	04812c03          	lw	s8,72(sp)
800024e0:	04412c83          	lw	s9,68(sp)
800024e4:	04012d03          	lw	s10,64(sp)
800024e8:	03c12d83          	lw	s11,60(sp)
800024ec:	07010113          	addi	sp,sp,112
800024f0:	00008067          	ret
800024f4:	00012423          	sw	zero,8(sp)
800024f8:	dd9ff06f          	j	800022d0 <putld+0x70>
800024fc:	01814783          	lbu	a5,24(sp)
80002500:	000c8493          	mv	s1,s9
80002504:	00f10c23          	sb	a5,24(sp)
80002508:	002c87b3          	add	a5,s9,sp
8000250c:	00078c23          	sb	zero,24(a5)
80002510:	00412783          	lw	a5,4(sp)
80002514:	fff78413          	addi	s0,a5,-1
80002518:	00c12783          	lw	a5,12(sp)
8000251c:	f60792e3          	bnez	a5,80002480 <putld+0x220>
80002520:	fffc8913          	addi	s2,s9,-1
80002524:	01944a63          	blt	s0,s9,80002538 <putld+0x2d8>
80002528:	02000513          	li	a0,32
8000252c:	fff40413          	addi	s0,s0,-1
80002530:	080010ef          	jal	800035b0 <outbyte>
80002534:	fe891ae3          	bne	s2,s0,80002528 <putld+0x2c8>
80002538:	00812783          	lw	a5,8(sp)
8000253c:	f60782e3          	beqz	a5,800024a0 <putld+0x240>
80002540:	02d00513          	li	a0,45
80002544:	06c010ef          	jal	800035b0 <outbyte>
80002548:	f59ff06f          	j	800024a0 <putld+0x240>
8000254c:	02d00513          	li	a0,45
80002550:	060010ef          	jal	800035b0 <outbyte>
80002554:	fffc8913          	addi	s2,s9,-1
80002558:	f3945ce3          	bge	s0,s9,80002490 <putld+0x230>
8000255c:	f45ff06f          	j	800024a0 <putld+0x240>

80002560 <putf>:
80002560:	fb010113          	addi	sp,sp,-80
80002564:	04912223          	sw	s1,68(sp)
80002568:	03612823          	sw	s6,48(sp)
8000256c:	03712623          	sw	s7,44(sp)
80002570:	03912223          	sw	s9,36(sp)
80002574:	03a12023          	sw	s10,32(sp)
80002578:	04112623          	sw	ra,76(sp)
8000257c:	01b12e23          	sw	s11,28(sp)
80002580:	00070493          	mv	s1,a4
80002584:	00058b13          	mv	s6,a1
80002588:	00050b93          	mv	s7,a0
8000258c:	00060c93          	mv	s9,a2
80002590:	00068d13          	mv	s10,a3
80002594:	1ce05c63          	blez	a4,8000276c <putf+0x20c>
80002598:	800067b7          	lui	a5,0x80006
8000259c:	03412c23          	sw	s4,56(sp)
800025a0:	80006a37          	lui	s4,0x80006
800025a4:	05212023          	sw	s2,64(sp)
800025a8:	03312e23          	sw	s3,60(sp)
800025ac:	03512a23          	sw	s5,52(sp)
800025b0:	03812423          	sw	s8,40(sp)
800025b4:	1447aa83          	lw	s5,324(a5) # 80006144 <__clzsi2+0x64>
800025b8:	1407ac03          	lw	s8,320(a5)
800025bc:	148a2903          	lw	s2,328(s4) # 80006148 <__clzsi2+0x68>
800025c0:	14ca2983          	lw	s3,332(s4)
800025c4:	04812423          	sw	s0,72(sp)
800025c8:	00000413          	li	s0,0
800025cc:	000c0513          	mv	a0,s8
800025d0:	000a8593          	mv	a1,s5
800025d4:	00090613          	mv	a2,s2
800025d8:	00098693          	mv	a3,s3
800025dc:	359010ef          	jal	80004134 <__divdf3>
800025e0:	00140413          	addi	s0,s0,1
800025e4:	00050c13          	mv	s8,a0
800025e8:	00058a93          	mv	s5,a1
800025ec:	fe8490e3          	bne	s1,s0,800025cc <putf+0x6c>
800025f0:	000b8513          	mv	a0,s7
800025f4:	000b0593          	mv	a1,s6
800025f8:	00000613          	li	a2,0
800025fc:	00000693          	li	a3,0
80002600:	1ec020ef          	jal	800047ec <__ledf2>
80002604:	00000d93          	li	s11,0
80002608:	00055863          	bgez	a0,80002618 <putf+0xb8>
8000260c:	800007b7          	lui	a5,0x80000
80002610:	00fb4b33          	xor	s6,s6,a5
80002614:	00100d93          	li	s11,1
80002618:	000c0613          	mv	a2,s8
8000261c:	000a8693          	mv	a3,s5
80002620:	000b8513          	mv	a0,s7
80002624:	000b0593          	mv	a1,s6
80002628:	3c0010ef          	jal	800039e8 <__adddf3>
8000262c:	00058993          	mv	s3,a1
80002630:	00050913          	mv	s2,a0
80002634:	054030ef          	jal	80005688 <__fixunsdfsi>
80002638:	00a12623          	sw	a0,12(sp)
8000263c:	164030ef          	jal	800057a0 <__floatunsidf>
80002640:	00050613          	mv	a2,a0
80002644:	00058693          	mv	a3,a1
80002648:	00090513          	mv	a0,s2
8000264c:	00098593          	mv	a1,s3
80002650:	05d020ef          	jal	80004eac <__subdf3>
80002654:	14ca2a83          	lw	s5,332(s4)
80002658:	148a2a03          	lw	s4,328(s4)
8000265c:	00050793          	mv	a5,a0
80002660:	00000c13          	li	s8,0
80002664:	00000b13          	li	s6,0
80002668:	00000b93          	li	s7,0
8000266c:	000a0613          	mv	a2,s4
80002670:	00078513          	mv	a0,a5
80002674:	000a8693          	mv	a3,s5
80002678:	24c020ef          	jal	800048c4 <__muldf3>
8000267c:	01eb5693          	srli	a3,s6,0x1e
80002680:	002b1793          	slli	a5,s6,0x2
80002684:	002b9713          	slli	a4,s7,0x2
80002688:	00e68733          	add	a4,a3,a4
8000268c:	01678b33          	add	s6,a5,s6
80002690:	01770733          	add	a4,a4,s7
80002694:	00fb3bb3          	sltu	s7,s6,a5
80002698:	00eb8bb3          	add	s7,s7,a4
8000269c:	01fb5793          	srli	a5,s6,0x1f
800026a0:	001b9b93          	slli	s7,s7,0x1
800026a4:	01778bb3          	add	s7,a5,s7
800026a8:	00058993          	mv	s3,a1
800026ac:	00050913          	mv	s2,a0
800026b0:	001b1b13          	slli	s6,s6,0x1
800026b4:	759020ef          	jal	8000560c <__fixdfsi>
800026b8:	01650b33          	add	s6,a0,s6
800026bc:	41f55793          	srai	a5,a0,0x1f
800026c0:	017787b3          	add	a5,a5,s7
800026c4:	00ab3bb3          	sltu	s7,s6,a0
800026c8:	00fb8bb3          	add	s7,s7,a5
800026cc:	034030ef          	jal	80005700 <__floatsidf>
800026d0:	00050613          	mv	a2,a0
800026d4:	00058693          	mv	a3,a1
800026d8:	00090513          	mv	a0,s2
800026dc:	00098593          	mv	a1,s3
800026e0:	7cc020ef          	jal	80004eac <__subdf3>
800026e4:	001c0c13          	addi	s8,s8,1
800026e8:	00050793          	mv	a5,a0
800026ec:	f98410e3          	bne	s0,s8,8000266c <putf+0x10c>
800026f0:	04812403          	lw	s0,72(sp)
800026f4:	04012903          	lw	s2,64(sp)
800026f8:	03c12983          	lw	s3,60(sp)
800026fc:	03812a03          	lw	s4,56(sp)
80002700:	03412a83          	lw	s5,52(sp)
80002704:	02812c03          	lw	s8,40(sp)
80002708:	409c87b3          	sub	a5,s9,s1
8000270c:	00c12503          	lw	a0,12(sp)
80002710:	40f005b3          	neg	a1,a5
80002714:	41f5d593          	srai	a1,a1,0x1f
80002718:	fff78793          	addi	a5,a5,-1 # 7fffffff <__heap_size+0x7fff2fff>
8000271c:	000d8693          	mv	a3,s11
80002720:	000d0613          	mv	a2,s10
80002724:	00b7f5b3          	and	a1,a5,a1
80002728:	ba0ff0ef          	jal	80001ac8 <putd>
8000272c:	02e00513          	li	a0,46
80002730:	681000ef          	jal	800035b0 <outbyte>
80002734:	04c12083          	lw	ra,76(sp)
80002738:	02412c83          	lw	s9,36(sp)
8000273c:	02012d03          	lw	s10,32(sp)
80002740:	01c12d83          	lw	s11,28(sp)
80002744:	00048613          	mv	a2,s1
80002748:	000b0513          	mv	a0,s6
8000274c:	04412483          	lw	s1,68(sp)
80002750:	03012b03          	lw	s6,48(sp)
80002754:	000b8593          	mv	a1,s7
80002758:	02c12b83          	lw	s7,44(sp)
8000275c:	00100713          	li	a4,1
80002760:	00070693          	mv	a3,a4
80002764:	05010113          	addi	sp,sp,80
80002768:	af9ff06f          	j	80002260 <putld>
8000276c:	00000613          	li	a2,0
80002770:	00000693          	li	a3,0
80002774:	078020ef          	jal	800047ec <__ledf2>
80002778:	02054a63          	bltz	a0,800027ac <putf+0x24c>
8000277c:	800067b7          	lui	a5,0x80006
80002780:	1407a603          	lw	a2,320(a5) # 80006140 <__clzsi2+0x60>
80002784:	1447a683          	lw	a3,324(a5)
80002788:	000b8513          	mv	a0,s7
8000278c:	000b0593          	mv	a1,s6
80002790:	258010ef          	jal	800039e8 <__adddf3>
80002794:	6f5020ef          	jal	80005688 <__fixunsdfsi>
80002798:	00a12623          	sw	a0,12(sp)
8000279c:	00000b13          	li	s6,0
800027a0:	00000b93          	li	s7,0
800027a4:	00000d93          	li	s11,0
800027a8:	f61ff06f          	j	80002708 <putf+0x1a8>
800027ac:	800067b7          	lui	a5,0x80006
800027b0:	1407a503          	lw	a0,320(a5) # 80006140 <__clzsi2+0x60>
800027b4:	1447a583          	lw	a1,324(a5)
800027b8:	000b8613          	mv	a2,s7
800027bc:	000b0693          	mv	a3,s6
800027c0:	6ec020ef          	jal	80004eac <__subdf3>
800027c4:	6c5020ef          	jal	80005688 <__fixunsdfsi>
800027c8:	00a12623          	sw	a0,12(sp)
800027cc:	00000b13          	li	s6,0
800027d0:	00000b93          	li	s7,0
800027d4:	00100d93          	li	s11,1
800027d8:	f31ff06f          	j	80002708 <putf+0x1a8>

800027dc <printf>:
800027dc:	fa010113          	addi	sp,sp,-96
800027e0:	02812c23          	sw	s0,56(sp)
800027e4:	04f12a23          	sw	a5,84(sp)
800027e8:	02112e23          	sw	ra,60(sp)
800027ec:	04b12223          	sw	a1,68(sp)
800027f0:	04c12423          	sw	a2,72(sp)
800027f4:	04d12623          	sw	a3,76(sp)
800027f8:	04e12823          	sw	a4,80(sp)
800027fc:	05012c23          	sw	a6,88(sp)
80002800:	05112e23          	sw	a7,92(sp)
80002804:	00050413          	mv	s0,a0
80002808:	00054503          	lbu	a0,0(a0)
8000280c:	04410793          	addi	a5,sp,68
80002810:	00f12623          	sw	a5,12(sp)
80002814:	06050863          	beqz	a0,80002884 <printf+0xa8>
80002818:	03312623          	sw	s3,44(sp)
8000281c:	800089b7          	lui	s3,0x80008
80002820:	02912a23          	sw	s1,52(sp)
80002824:	03212823          	sw	s2,48(sp)
80002828:	03412423          	sw	s4,40(sp)
8000282c:	03512223          	sw	s5,36(sp)
80002830:	03612023          	sw	s6,32(sp)
80002834:	01712e23          	sw	s7,28(sp)
80002838:	00600493          	li	s1,6
8000283c:	11498993          	addi	s3,s3,276 # 80008114 <heap_top+0x1fc0>
80002840:	02500913          	li	s2,37
80002844:	00900b93          	li	s7,9
80002848:	06c00b13          	li	s6,108
8000284c:	02e00a93          	li	s5,46
80002850:	02000a13          	li	s4,32
80002854:	05250063          	beq	a0,s2,80002894 <printf+0xb8>
80002858:	559000ef          	jal	800035b0 <outbyte>
8000285c:	00144503          	lbu	a0,1(s0)
80002860:	00140413          	addi	s0,s0,1
80002864:	fe0518e3          	bnez	a0,80002854 <printf+0x78>
80002868:	03412483          	lw	s1,52(sp)
8000286c:	03012903          	lw	s2,48(sp)
80002870:	02c12983          	lw	s3,44(sp)
80002874:	02812a03          	lw	s4,40(sp)
80002878:	02412a83          	lw	s5,36(sp)
8000287c:	02012b03          	lw	s6,32(sp)
80002880:	01c12b83          	lw	s7,28(sp)
80002884:	03c12083          	lw	ra,60(sp)
80002888:	03812403          	lw	s0,56(sp)
8000288c:	06010113          	addi	sp,sp,96
80002890:	00008067          	ret
80002894:	00144503          	lbu	a0,1(s0)
80002898:	00000593          	li	a1,0
8000289c:	00140413          	addi	s0,s0,1
800028a0:	fd050713          	addi	a4,a0,-48
800028a4:	0ff77793          	zext.b	a5,a4
800028a8:	00173613          	seqz	a2,a4
800028ac:	02fbe463          	bltu	s7,a5,800028d4 <printf+0xf8>
800028b0:	00259793          	slli	a5,a1,0x2
800028b4:	00144503          	lbu	a0,1(s0)
800028b8:	00b787b3          	add	a5,a5,a1
800028bc:	00179793          	slli	a5,a5,0x1
800028c0:	00f705b3          	add	a1,a4,a5
800028c4:	fd050713          	addi	a4,a0,-48
800028c8:	0ff77793          	zext.b	a5,a4
800028cc:	00140413          	addi	s0,s0,1
800028d0:	fefbf0e3          	bgeu	s7,a5,800028b0 <printf+0xd4>
800028d4:	03650263          	beq	a0,s6,800028f8 <printf+0x11c>
800028d8:	03550663          	beq	a0,s5,80002904 <printf+0x128>
800028dc:	fa850793          	addi	a5,a0,-88
800028e0:	0ff7f793          	zext.b	a5,a5
800028e4:	f6fa6ae3          	bltu	s4,a5,80002858 <printf+0x7c>
800028e8:	00279793          	slli	a5,a5,0x2
800028ec:	013787b3          	add	a5,a5,s3
800028f0:	0007a783          	lw	a5,0(a5)
800028f4:	00078067          	jr	a5
800028f8:	00144503          	lbu	a0,1(s0)
800028fc:	00140413          	addi	s0,s0,1
80002900:	fd551ee3          	bne	a0,s5,800028dc <printf+0x100>
80002904:	00144503          	lbu	a0,1(s0)
80002908:	00900693          	li	a3,9
8000290c:	00140413          	addi	s0,s0,1
80002910:	fd050713          	addi	a4,a0,-48
80002914:	0ff77793          	zext.b	a5,a4
80002918:	00000493          	li	s1,0
8000291c:	fcf6e0e3          	bltu	a3,a5,800028dc <printf+0x100>
80002920:	00249793          	slli	a5,s1,0x2
80002924:	00144503          	lbu	a0,1(s0)
80002928:	009787b3          	add	a5,a5,s1
8000292c:	00179793          	slli	a5,a5,0x1
80002930:	00f704b3          	add	s1,a4,a5
80002934:	fd050713          	addi	a4,a0,-48
80002938:	0ff77793          	zext.b	a5,a4
8000293c:	00140413          	addi	s0,s0,1
80002940:	fef6f0e3          	bgeu	a3,a5,80002920 <printf+0x144>
80002944:	f99ff06f          	j	800028dc <printf+0x100>
80002948:	00c12783          	lw	a5,12(sp)
8000294c:	00000693          	li	a3,0
80002950:	0007a503          	lw	a0,0(a5)
80002954:	00478793          	addi	a5,a5,4
80002958:	00f12623          	sw	a5,12(sp)
8000295c:	e00ff0ef          	jal	80001f5c <putx>
80002960:	efdff06f          	j	8000285c <printf+0x80>
80002964:	00c12783          	lw	a5,12(sp)
80002968:	00000693          	li	a3,0
8000296c:	0007a503          	lw	a0,0(a5)
80002970:	00478793          	addi	a5,a5,4
80002974:	00f12623          	sw	a5,12(sp)
80002978:	950ff0ef          	jal	80001ac8 <putd>
8000297c:	ee1ff06f          	j	8000285c <printf+0x80>
80002980:	00c12783          	lw	a5,12(sp)
80002984:	01812c23          	sw	s8,24(sp)
80002988:	0007ac03          	lw	s8,0(a5)
8000298c:	00478793          	addi	a5,a5,4
80002990:	00f12623          	sw	a5,12(sp)
80002994:	000c4503          	lbu	a0,0(s8)
80002998:	00050a63          	beqz	a0,800029ac <printf+0x1d0>
8000299c:	001c0c13          	addi	s8,s8,1
800029a0:	411000ef          	jal	800035b0 <outbyte>
800029a4:	000c4503          	lbu	a0,0(s8)
800029a8:	fe051ae3          	bnez	a0,8000299c <printf+0x1c0>
800029ac:	01812c03          	lw	s8,24(sp)
800029b0:	eadff06f          	j	8000285c <printf+0x80>
800029b4:	00c12783          	lw	a5,12(sp)
800029b8:	00060693          	mv	a3,a2
800029bc:	00058613          	mv	a2,a1
800029c0:	00778793          	addi	a5,a5,7
800029c4:	ff87f793          	andi	a5,a5,-8
800029c8:	0007a503          	lw	a0,0(a5)
800029cc:	0047a583          	lw	a1,4(a5)
800029d0:	00048713          	mv	a4,s1
800029d4:	00878793          	addi	a5,a5,8
800029d8:	00f12623          	sw	a5,12(sp)
800029dc:	b85ff0ef          	jal	80002560 <putf>
800029e0:	e7dff06f          	j	8000285c <printf+0x80>
800029e4:	00c12783          	lw	a5,12(sp)
800029e8:	0007a683          	lw	a3,0(a5)
800029ec:	00478793          	addi	a5,a5,4
800029f0:	00f12623          	sw	a5,12(sp)
800029f4:	41f6d793          	srai	a5,a3,0x1f
800029f8:	00d7c533          	xor	a0,a5,a3
800029fc:	40f50533          	sub	a0,a0,a5
80002a00:	01f6d693          	srli	a3,a3,0x1f
80002a04:	8c4ff0ef          	jal	80001ac8 <putd>
80002a08:	e55ff06f          	j	8000285c <printf+0x80>
80002a0c:	00c12783          	lw	a5,12(sp)
80002a10:	00100693          	li	a3,1
80002a14:	0007a503          	lw	a0,0(a5)
80002a18:	00478793          	addi	a5,a5,4
80002a1c:	00f12623          	sw	a5,12(sp)
80002a20:	d3cff0ef          	jal	80001f5c <putx>
80002a24:	e39ff06f          	j	8000285c <printf+0x80>

80002a28 <exit>:
80002a28:	fe010113          	addi	sp,sp,-32
80002a2c:	00112e23          	sw	ra,28(sp)
80002a30:	00812c23          	sw	s0,24(sp)
80002a34:	02010413          	addi	s0,sp,32
80002a38:	fea42623          	sw	a0,-20(s0)
80002a3c:	800087b7          	lui	a5,0x80008
80002a40:	19878513          	addi	a0,a5,408 # 80008198 <heap_top+0x2044>
80002a44:	d99ff0ef          	jal	800027dc <printf>
80002a48:	fec42583          	lw	a1,-20(s0)
80002a4c:	800087b7          	lui	a5,0x80008
80002a50:	1e478513          	addi	a0,a5,484 # 800081e4 <heap_top+0x2090>
80002a54:	d89ff0ef          	jal	800027dc <printf>
80002a58:	800087b7          	lui	a5,0x80008
80002a5c:	20878513          	addi	a0,a5,520 # 80008208 <heap_top+0x20b4>
80002a60:	d7dff0ef          	jal	800027dc <printf>
80002a64:	00300513          	li	a0,3
80002a68:	ed5fe0ef          	jal	8000193c <putchar>
80002a6c:	00000013          	nop
80002a70:	ffdff06f          	j	80002a6c <exit+0x44>

80002a74 <malloc>:
80002a74:	800088b7          	lui	a7,0x80008
80002a78:	800087b7          	lui	a5,0x80008
80002a7c:	3a48a803          	lw	a6,932(a7) # 800083a4 <curr_top>
80002a80:	3a07a583          	lw	a1,928(a5) # 800083a0 <heap_end>
80002a84:	0ab80063          	beq	a6,a1,80002b24 <malloc+0xb0>
80002a88:	02b87263          	bgeu	a6,a1,80002aac <malloc+0x38>
80002a8c:	00080793          	mv	a5,a6
80002a90:	0007a703          	lw	a4,0(a5)
80002a94:	00177693          	andi	a3,a4,1
80002a98:	40f70633          	sub	a2,a4,a5
80002a9c:	00069463          	bnez	a3,80002aa4 <malloc+0x30>
80002aa0:	02c56e63          	bltu	a0,a2,80002adc <malloc+0x68>
80002aa4:	ffe77793          	andi	a5,a4,-2
80002aa8:	feb7e4e3          	bltu	a5,a1,80002a90 <malloc+0x1c>
80002aac:	800067b7          	lui	a5,0x80006
80002ab0:	1547a783          	lw	a5,340(a5) # 80006154 <heap_top>
80002ab4:	0307f063          	bgeu	a5,a6,80002ad4 <malloc+0x60>
80002ab8:	0007a703          	lw	a4,0(a5)
80002abc:	00177693          	andi	a3,a4,1
80002ac0:	40f70633          	sub	a2,a4,a5
80002ac4:	00069463          	bnez	a3,80002acc <malloc+0x58>
80002ac8:	08c56c63          	bltu	a0,a2,80002b60 <malloc+0xec>
80002acc:	ffe77793          	andi	a5,a4,-2
80002ad0:	ff07e4e3          	bltu	a5,a6,80002ab8 <malloc+0x44>
80002ad4:	00000613          	li	a2,0
80002ad8:	0440006f          	j	80002b1c <malloc+0xa8>
80002adc:	ffe7f693          	andi	a3,a5,-2
80002ae0:	00468693          	addi	a3,a3,4
80002ae4:	00357813          	andi	a6,a0,3
80002ae8:	00068613          	mv	a2,a3
80002aec:	00000593          	li	a1,0
80002af0:	06081263          	bnez	a6,80002b54 <malloc+0xe0>
80002af4:	00450813          	addi	a6,a0,4
80002af8:	00b80833          	add	a6,a6,a1
80002afc:	ffc87813          	andi	a6,a6,-4
80002b00:	01078833          	add	a6,a5,a6
80002b04:	3b08a223          	sw	a6,932(a7)
80002b08:	00e80463          	beq	a6,a4,80002b10 <malloc+0x9c>
80002b0c:	00e82023          	sw	a4,0(a6)
80002b10:	00186713          	ori	a4,a6,1
80002b14:	00e7a023          	sw	a4,0(a5)
80002b18:	f8068ae3          	beqz	a3,80002aac <malloc+0x38>
80002b1c:	00060513          	mv	a0,a2
80002b20:	00008067          	ret
80002b24:	800066b7          	lui	a3,0x80006
80002b28:	80006737          	lui	a4,0x80006
80002b2c:	1546a803          	lw	a6,340(a3) # 80006154 <heap_top>
80002b30:	15072583          	lw	a1,336(a4) # 80006150 <heap_size>
80002b34:	3b08a223          	sw	a6,932(a7)
80002b38:	00b805b3          	add	a1,a6,a1
80002b3c:	ff05f593          	andi	a1,a1,-16
80002b40:	3ab7a023          	sw	a1,928(a5)
80002b44:	00b82023          	sw	a1,0(a6)
80002b48:	f4b862e3          	bltu	a6,a1,80002a8c <malloc+0x18>
80002b4c:	00000613          	li	a2,0
80002b50:	fcdff06f          	j	80002b1c <malloc+0xa8>
80002b54:	00400593          	li	a1,4
80002b58:	410585b3          	sub	a1,a1,a6
80002b5c:	f99ff06f          	j	80002af4 <malloc+0x80>
80002b60:	ffe7f613          	andi	a2,a5,-2
80002b64:	00357693          	andi	a3,a0,3
80002b68:	00460613          	addi	a2,a2,4
80002b6c:	00000593          	li	a1,0
80002b70:	00068663          	beqz	a3,80002b7c <malloc+0x108>
80002b74:	00400593          	li	a1,4
80002b78:	40d585b3          	sub	a1,a1,a3
80002b7c:	00450693          	addi	a3,a0,4
80002b80:	00b686b3          	add	a3,a3,a1
80002b84:	ffc6f693          	andi	a3,a3,-4
80002b88:	00d786b3          	add	a3,a5,a3
80002b8c:	3ad8a223          	sw	a3,932(a7)
80002b90:	00e68463          	beq	a3,a4,80002b98 <malloc+0x124>
80002b94:	00e6a023          	sw	a4,0(a3)
80002b98:	0016e693          	ori	a3,a3,1
80002b9c:	00d7a023          	sw	a3,0(a5)
80002ba0:	00060513          	mv	a0,a2
80002ba4:	00008067          	ret

80002ba8 <free>:
80002ba8:	ffc52783          	lw	a5,-4(a0)
80002bac:	ffe7f793          	andi	a5,a5,-2
80002bb0:	fef52e23          	sw	a5,-4(a0)
80002bb4:	0007a783          	lw	a5,0(a5)
80002bb8:	0017f713          	andi	a4,a5,1
80002bbc:	00071a63          	bnez	a4,80002bd0 <free+0x28>
80002bc0:	ffc50693          	addi	a3,a0,-4
80002bc4:	80008737          	lui	a4,0x80008
80002bc8:	fef52e23          	sw	a5,-4(a0)
80002bcc:	3ad72223          	sw	a3,932(a4) # 800083a4 <curr_top>
80002bd0:	00008067          	ret

80002bd4 <calloc>:
80002bd4:	02b50633          	mul	a2,a0,a1
80002bd8:	fe010113          	addi	sp,sp,-32
80002bdc:	00112e23          	sw	ra,28(sp)
80002be0:	00912c23          	sw	s1,24(sp)
80002be4:	00060513          	mv	a0,a2
80002be8:	00c12623          	sw	a2,12(sp)
80002bec:	e89ff0ef          	jal	80002a74 <malloc>
80002bf0:	00c12603          	lw	a2,12(sp)
80002bf4:	00000593          	li	a1,0
80002bf8:	00050493          	mv	s1,a0
80002bfc:	288000ef          	jal	80002e84 <memset>
80002c00:	01c12083          	lw	ra,28(sp)
80002c04:	00048513          	mv	a0,s1
80002c08:	01812483          	lw	s1,24(sp)
80002c0c:	02010113          	addi	sp,sp,32
80002c10:	00008067          	ret

80002c14 <atoi>:
80002c14:	00054783          	lbu	a5,0(a0)
80002c18:	00050713          	mv	a4,a0
80002c1c:	fe078693          	addi	a3,a5,-32
80002c20:	00068663          	beqz	a3,80002c2c <atoi+0x18>
80002c24:	ff778693          	addi	a3,a5,-9
80002c28:	00069e63          	bnez	a3,80002c44 <atoi+0x30>
80002c2c:	00174783          	lbu	a5,1(a4)
80002c30:	00170713          	addi	a4,a4,1
80002c34:	fe078693          	addi	a3,a5,-32
80002c38:	ff778613          	addi	a2,a5,-9
80002c3c:	fe0688e3          	beqz	a3,80002c2c <atoi+0x18>
80002c40:	fe0606e3          	beqz	a2,80002c2c <atoi+0x18>
80002c44:	02d00693          	li	a3,45
80002c48:	00100893          	li	a7,1
80002c4c:	00d79863          	bne	a5,a3,80002c5c <atoi+0x48>
80002c50:	00174783          	lbu	a5,1(a4)
80002c54:	fff00893          	li	a7,-1
80002c58:	00170713          	addi	a4,a4,1
80002c5c:	fd078793          	addi	a5,a5,-48
80002c60:	0ff7f693          	zext.b	a3,a5
80002c64:	00900813          	li	a6,9
80002c68:	00000513          	li	a0,0
80002c6c:	04d86063          	bltu	a6,a3,80002cac <atoi+0x98>
80002c70:	00174603          	lbu	a2,1(a4)
80002c74:	02060e63          	beqz	a2,80002cb0 <atoi+0x9c>
80002c78:	00170713          	addi	a4,a4,1
80002c7c:	0100006f          	j	80002c8c <atoi+0x78>
80002c80:	00074603          	lbu	a2,0(a4)
80002c84:	00f587b3          	add	a5,a1,a5
80002c88:	02060463          	beqz	a2,80002cb0 <atoi+0x9c>
80002c8c:	00279693          	slli	a3,a5,0x2
80002c90:	fd060593          	addi	a1,a2,-48
80002c94:	00f687b3          	add	a5,a3,a5
80002c98:	0ff5f693          	zext.b	a3,a1
80002c9c:	00170713          	addi	a4,a4,1
80002ca0:	00179793          	slli	a5,a5,0x1
80002ca4:	fcd87ee3          	bgeu	a6,a3,80002c80 <atoi+0x6c>
80002ca8:	00000513          	li	a0,0
80002cac:	00008067          	ret
80002cb0:	02f88533          	mul	a0,a7,a5
80002cb4:	00008067          	ret

80002cb8 <abs>:
80002cb8:	41f55793          	srai	a5,a0,0x1f
80002cbc:	00a7c533          	xor	a0,a5,a0
80002cc0:	40f50533          	sub	a0,a0,a5
80002cc4:	00008067          	ret

80002cc8 <srand>:
80002cc8:	800087b7          	lui	a5,0x80008
80002ccc:	38a7ae23          	sw	a0,924(a5) # 8000839c <rand_seed>
80002cd0:	00008067          	ret

80002cd4 <rand>:
80002cd4:	80008737          	lui	a4,0x80008
80002cd8:	39c72503          	lw	a0,924(a4) # 8000839c <rand_seed>
80002cdc:	000347b7          	lui	a5,0x34
80002ce0:	3fd78793          	addi	a5,a5,1021 # 343fd <__heap_size+0x273fd>
80002ce4:	02f50533          	mul	a0,a0,a5
80002ce8:	0026a7b7          	lui	a5,0x26a
80002cec:	ec378793          	addi	a5,a5,-317 # 269ec3 <__heap_size+0x25cec3>
80002cf0:	00f50533          	add	a0,a0,a5
80002cf4:	00151793          	slli	a5,a0,0x1
80002cf8:	38a72e23          	sw	a0,924(a4)
80002cfc:	0117d513          	srli	a0,a5,0x11
80002d00:	00008067          	ret

80002d04 <memcpy>:
80002d04:	0a060063          	beqz	a2,80002da4 <memcpy+0xa0>
80002d08:	fff60793          	addi	a5,a2,-1
80002d0c:	00600713          	li	a4,6
80002d10:	06f77c63          	bgeu	a4,a5,80002d88 <memcpy+0x84>
80002d14:	00b566b3          	or	a3,a0,a1
80002d18:	0036f693          	andi	a3,a3,3
80002d1c:	00058793          	mv	a5,a1
80002d20:	00050713          	mv	a4,a0
80002d24:	06069263          	bnez	a3,80002d88 <memcpy+0x84>
80002d28:	40b506b3          	sub	a3,a0,a1
80002d2c:	fff68693          	addi	a3,a3,-1
80002d30:	0036b693          	sltiu	a3,a3,3
80002d34:	04069a63          	bnez	a3,80002d88 <memcpy+0x84>
80002d38:	ffc67813          	andi	a6,a2,-4
80002d3c:	00b805b3          	add	a1,a6,a1
80002d40:	0007a683          	lw	a3,0(a5)
80002d44:	00478793          	addi	a5,a5,4
80002d48:	00470713          	addi	a4,a4,4
80002d4c:	fed72e23          	sw	a3,-4(a4)
80002d50:	fef598e3          	bne	a1,a5,80002d40 <memcpy+0x3c>
80002d54:	05060863          	beq	a2,a6,80002da4 <memcpy+0xa0>
80002d58:	0005c683          	lbu	a3,0(a1)
80002d5c:	01050733          	add	a4,a0,a6
80002d60:	00180793          	addi	a5,a6,1
80002d64:	00d70023          	sb	a3,0(a4)
80002d68:	02c7fe63          	bgeu	a5,a2,80002da4 <memcpy+0xa0>
80002d6c:	0015c783          	lbu	a5,1(a1)
80002d70:	00280813          	addi	a6,a6,2
80002d74:	00f700a3          	sb	a5,1(a4)
80002d78:	02c87663          	bgeu	a6,a2,80002da4 <memcpy+0xa0>
80002d7c:	0025c783          	lbu	a5,2(a1)
80002d80:	00f70123          	sb	a5,2(a4)
80002d84:	00008067          	ret
80002d88:	00c50633          	add	a2,a0,a2
80002d8c:	00050793          	mv	a5,a0
80002d90:	0005c703          	lbu	a4,0(a1)
80002d94:	00178793          	addi	a5,a5,1
80002d98:	00158593          	addi	a1,a1,1
80002d9c:	fee78fa3          	sb	a4,-1(a5)
80002da0:	fec798e3          	bne	a5,a2,80002d90 <memcpy+0x8c>
80002da4:	00008067          	ret

80002da8 <memmove>:
80002da8:	00058793          	mv	a5,a1
80002dac:	00050713          	mv	a4,a0
80002db0:	00b56663          	bltu	a0,a1,80002dbc <memmove+0x14>
80002db4:	00c586b3          	add	a3,a1,a2
80002db8:	0aa6f063          	bgeu	a3,a0,80002e58 <memmove+0xb0>
80002dbc:	0c060263          	beqz	a2,80002e80 <memmove+0xd8>
80002dc0:	fff60693          	addi	a3,a2,-1
80002dc4:	00600813          	li	a6,6
80002dc8:	06d87863          	bgeu	a6,a3,80002e38 <memmove+0x90>
80002dcc:	00a5e6b3          	or	a3,a1,a0
80002dd0:	0036f693          	andi	a3,a3,3
80002dd4:	06069263          	bnez	a3,80002e38 <memmove+0x90>
80002dd8:	40b506b3          	sub	a3,a0,a1
80002ddc:	fff68693          	addi	a3,a3,-1
80002de0:	0036b693          	sltiu	a3,a3,3
80002de4:	04069a63          	bnez	a3,80002e38 <memmove+0x90>
80002de8:	ffc67813          	andi	a6,a2,-4
80002dec:	010585b3          	add	a1,a1,a6
80002df0:	0007a683          	lw	a3,0(a5)
80002df4:	00478793          	addi	a5,a5,4
80002df8:	00470713          	addi	a4,a4,4
80002dfc:	fed72e23          	sw	a3,-4(a4)
80002e00:	fef598e3          	bne	a1,a5,80002df0 <memmove+0x48>
80002e04:	05060863          	beq	a2,a6,80002e54 <memmove+0xac>
80002e08:	0005c683          	lbu	a3,0(a1)
80002e0c:	01050733          	add	a4,a0,a6
80002e10:	00180793          	addi	a5,a6,1
80002e14:	00d70023          	sb	a3,0(a4)
80002e18:	02c7fe63          	bgeu	a5,a2,80002e54 <memmove+0xac>
80002e1c:	0015c783          	lbu	a5,1(a1)
80002e20:	00280813          	addi	a6,a6,2
80002e24:	00f700a3          	sb	a5,1(a4)
80002e28:	02c87663          	bgeu	a6,a2,80002e54 <memmove+0xac>
80002e2c:	0025c783          	lbu	a5,2(a1)
80002e30:	00f70123          	sb	a5,2(a4)
80002e34:	00008067          	ret
80002e38:	00c50633          	add	a2,a0,a2
80002e3c:	00050793          	mv	a5,a0
80002e40:	0005c703          	lbu	a4,0(a1)
80002e44:	00178793          	addi	a5,a5,1
80002e48:	00158593          	addi	a1,a1,1
80002e4c:	fee78fa3          	sb	a4,-1(a5)
80002e50:	fec798e3          	bne	a5,a2,80002e40 <memmove+0x98>
80002e54:	00008067          	ret
80002e58:	fff60613          	addi	a2,a2,-1
80002e5c:	fe064ce3          	bltz	a2,80002e54 <memmove+0xac>
80002e60:	fff00693          	li	a3,-1
80002e64:	00c587b3          	add	a5,a1,a2
80002e68:	0007c703          	lbu	a4,0(a5)
80002e6c:	00c507b3          	add	a5,a0,a2
80002e70:	fff60613          	addi	a2,a2,-1
80002e74:	00e78023          	sb	a4,0(a5)
80002e78:	fed616e3          	bne	a2,a3,80002e64 <memmove+0xbc>
80002e7c:	00008067          	ret
80002e80:	00008067          	ret

80002e84 <memset>:
80002e84:	0c060a63          	beqz	a2,80002f58 <memset+0xd4>
80002e88:	fff60793          	addi	a5,a2,-1
80002e8c:	00500713          	li	a4,5
80002e90:	0ff5f593          	zext.b	a1,a1
80002e94:	0cf77a63          	bgeu	a4,a5,80002f68 <memset+0xe4>
80002e98:	40a00733          	neg	a4,a0
80002e9c:	00377793          	andi	a5,a4,3
80002ea0:	0a078e63          	beqz	a5,80002f5c <memset+0xd8>
80002ea4:	00b50023          	sb	a1,0(a0)
80002ea8:	00277713          	andi	a4,a4,2
80002eac:	00150893          	addi	a7,a0,1
80002eb0:	00100813          	li	a6,1
80002eb4:	02070263          	beqz	a4,80002ed8 <memset+0x54>
80002eb8:	00b500a3          	sb	a1,1(a0)
80002ebc:	00300713          	li	a4,3
80002ec0:	00250893          	addi	a7,a0,2
80002ec4:	00200813          	li	a6,2
80002ec8:	00e79863          	bne	a5,a4,80002ed8 <memset+0x54>
80002ecc:	00b50123          	sb	a1,2(a0)
80002ed0:	00350893          	addi	a7,a0,3
80002ed4:	00078813          	mv	a6,a5
80002ed8:	00859713          	slli	a4,a1,0x8
80002edc:	01059693          	slli	a3,a1,0x10
80002ee0:	40f60e33          	sub	t3,a2,a5
80002ee4:	00e5e733          	or	a4,a1,a4
80002ee8:	00d76733          	or	a4,a4,a3
80002eec:	00f507b3          	add	a5,a0,a5
80002ef0:	01859693          	slli	a3,a1,0x18
80002ef4:	ffce7313          	andi	t1,t3,-4
80002ef8:	00d76733          	or	a4,a4,a3
80002efc:	00f306b3          	add	a3,t1,a5
80002f00:	00e7a023          	sw	a4,0(a5)
80002f04:	00478793          	addi	a5,a5,4
80002f08:	fed79ce3          	bne	a5,a3,80002f00 <memset+0x7c>
80002f0c:	05c30663          	beq	t1,t3,80002f58 <memset+0xd4>
80002f10:	010307b3          	add	a5,t1,a6
80002f14:	00688733          	add	a4,a7,t1
80002f18:	00b70023          	sb	a1,0(a4)
80002f1c:	00178693          	addi	a3,a5,1
80002f20:	02c6fc63          	bgeu	a3,a2,80002f58 <memset+0xd4>
80002f24:	00b700a3          	sb	a1,1(a4)
80002f28:	00278693          	addi	a3,a5,2
80002f2c:	02c6f663          	bgeu	a3,a2,80002f58 <memset+0xd4>
80002f30:	00b70123          	sb	a1,2(a4)
80002f34:	00378693          	addi	a3,a5,3
80002f38:	02c6f063          	bgeu	a3,a2,80002f58 <memset+0xd4>
80002f3c:	00b701a3          	sb	a1,3(a4)
80002f40:	00478693          	addi	a3,a5,4
80002f44:	00c6fa63          	bgeu	a3,a2,80002f58 <memset+0xd4>
80002f48:	00b70223          	sb	a1,4(a4)
80002f4c:	00578793          	addi	a5,a5,5
80002f50:	00c7f463          	bgeu	a5,a2,80002f58 <memset+0xd4>
80002f54:	00b702a3          	sb	a1,5(a4)
80002f58:	00008067          	ret
80002f5c:	00050893          	mv	a7,a0
80002f60:	00000813          	li	a6,0
80002f64:	f75ff06f          	j	80002ed8 <memset+0x54>
80002f68:	00050713          	mv	a4,a0
80002f6c:	00000793          	li	a5,0
80002f70:	fa9ff06f          	j	80002f18 <memset+0x94>

80002f74 <strlen>:
80002f74:	00054783          	lbu	a5,0(a0)
80002f78:	00078c63          	beqz	a5,80002f90 <strlen+0x1c>
80002f7c:	00000793          	li	a5,0
80002f80:	00178793          	addi	a5,a5,1
80002f84:	00f50733          	add	a4,a0,a5
80002f88:	00074703          	lbu	a4,0(a4)
80002f8c:	fe071ae3          	bnez	a4,80002f80 <strlen+0xc>
80002f90:	00078513          	mv	a0,a5
80002f94:	00008067          	ret

80002f98 <strcpy>:
80002f98:	0005a683          	lw	a3,0(a1)
80002f9c:	feff0337          	lui	t1,0xfeff0
80002fa0:	eff30313          	addi	t1,t1,-257 # fefefeff <__stack_top+0x7efd9b2f>
80002fa4:	fff6c713          	not	a4,a3
80002fa8:	006687b3          	add	a5,a3,t1
80002fac:	808088b7          	lui	a7,0x80808
80002fb0:	00e7f7b3          	and	a5,a5,a4
80002fb4:	08088893          	addi	a7,a7,128 # 80808080 <__stack_top+0x7f1cb0>
80002fb8:	0117f733          	and	a4,a5,a7
80002fbc:	00458613          	addi	a2,a1,4
80002fc0:	00050793          	mv	a5,a0
80002fc4:	02071663          	bnez	a4,80002ff0 <strcpy+0x58>
80002fc8:	00060593          	mv	a1,a2
80002fcc:	00d7a023          	sw	a3,0(a5)
80002fd0:	00062683          	lw	a3,0(a2)
80002fd4:	00478793          	addi	a5,a5,4
80002fd8:	00460613          	addi	a2,a2,4
80002fdc:	00668733          	add	a4,a3,t1
80002fe0:	fff6c813          	not	a6,a3
80002fe4:	01077733          	and	a4,a4,a6
80002fe8:	01177733          	and	a4,a4,a7
80002fec:	fc070ee3          	beqz	a4,80002fc8 <strcpy+0x30>
80002ff0:	0005c703          	lbu	a4,0(a1)
80002ff4:	00158593          	addi	a1,a1,1
80002ff8:	00178793          	addi	a5,a5,1
80002ffc:	fee78fa3          	sb	a4,-1(a5)
80003000:	fe0718e3          	bnez	a4,80002ff0 <strcpy+0x58>
80003004:	00008067          	ret

80003008 <strncpy>:
80003008:	0005c703          	lbu	a4,0(a1)
8000300c:	00050793          	mv	a5,a0
80003010:	00071e63          	bnez	a4,8000302c <strncpy+0x24>
80003014:	0f00006f          	j	80003104 <strncpy+0xfc>
80003018:	fee78fa3          	sb	a4,-1(a5)
8000301c:	0005c703          	lbu	a4,0(a1)
80003020:	fff60693          	addi	a3,a2,-1
80003024:	00070c63          	beqz	a4,8000303c <strncpy+0x34>
80003028:	00068613          	mv	a2,a3
8000302c:	00178793          	addi	a5,a5,1
80003030:	00158593          	addi	a1,a1,1
80003034:	fe0612e3          	bnez	a2,80003018 <strncpy+0x10>
80003038:	00008067          	ret
8000303c:	ffe60593          	addi	a1,a2,-2
80003040:	0c068863          	beqz	a3,80003110 <strncpy+0x108>
80003044:	00500713          	li	a4,5
80003048:	06b77263          	bgeu	a4,a1,800030ac <strncpy+0xa4>
8000304c:	40f00633          	neg	a2,a5
80003050:	00367713          	andi	a4,a2,3
80003054:	00158693          	addi	a3,a1,1
80003058:	00078813          	mv	a6,a5
8000305c:	02070463          	beqz	a4,80003084 <strncpy+0x7c>
80003060:	00078023          	sb	zero,0(a5)
80003064:	00267613          	andi	a2,a2,2
80003068:	08060263          	beqz	a2,800030ec <strncpy+0xe4>
8000306c:	000780a3          	sb	zero,1(a5)
80003070:	00300613          	li	a2,3
80003074:	08c71263          	bne	a4,a2,800030f8 <strncpy+0xf0>
80003078:	00078123          	sb	zero,2(a5)
8000307c:	ffd58593          	addi	a1,a1,-3
80003080:	00378813          	addi	a6,a5,3
80003084:	40e686b3          	sub	a3,a3,a4
80003088:	00e787b3          	add	a5,a5,a4
8000308c:	ffc6f613          	andi	a2,a3,-4
80003090:	00c78733          	add	a4,a5,a2
80003094:	0007a023          	sw	zero,0(a5)
80003098:	00478793          	addi	a5,a5,4
8000309c:	fee79ce3          	bne	a5,a4,80003094 <strncpy+0x8c>
800030a0:	04c68463          	beq	a3,a2,800030e8 <strncpy+0xe0>
800030a4:	40c585b3          	sub	a1,a1,a2
800030a8:	00c807b3          	add	a5,a6,a2
800030ac:	00078023          	sb	zero,0(a5)
800030b0:	02058c63          	beqz	a1,800030e8 <strncpy+0xe0>
800030b4:	000780a3          	sb	zero,1(a5)
800030b8:	00100713          	li	a4,1
800030bc:	02e58663          	beq	a1,a4,800030e8 <strncpy+0xe0>
800030c0:	00078123          	sb	zero,2(a5)
800030c4:	00200713          	li	a4,2
800030c8:	02e58063          	beq	a1,a4,800030e8 <strncpy+0xe0>
800030cc:	000781a3          	sb	zero,3(a5)
800030d0:	00300713          	li	a4,3
800030d4:	00e58a63          	beq	a1,a4,800030e8 <strncpy+0xe0>
800030d8:	00078223          	sb	zero,4(a5)
800030dc:	00400713          	li	a4,4
800030e0:	00e58463          	beq	a1,a4,800030e8 <strncpy+0xe0>
800030e4:	000782a3          	sb	zero,5(a5)
800030e8:	00008067          	ret
800030ec:	fff58593          	addi	a1,a1,-1
800030f0:	00178813          	addi	a6,a5,1
800030f4:	f91ff06f          	j	80003084 <strncpy+0x7c>
800030f8:	ffe58593          	addi	a1,a1,-2
800030fc:	00278813          	addi	a6,a5,2
80003100:	f85ff06f          	j	80003084 <strncpy+0x7c>
80003104:	fff60593          	addi	a1,a2,-1
80003108:	00060693          	mv	a3,a2
8000310c:	f35ff06f          	j	80003040 <strncpy+0x38>
80003110:	00008067          	ret

80003114 <strcat>:
80003114:	00054783          	lbu	a5,0(a0)
80003118:	02078c63          	beqz	a5,80003150 <strcat+0x3c>
8000311c:	00050793          	mv	a5,a0
80003120:	0017c703          	lbu	a4,1(a5)
80003124:	00178793          	addi	a5,a5,1
80003128:	fe071ce3          	bnez	a4,80003120 <strcat+0xc>
8000312c:	0005c703          	lbu	a4,0(a1)
80003130:	00070c63          	beqz	a4,80003148 <strcat+0x34>
80003134:	00178793          	addi	a5,a5,1
80003138:	00158593          	addi	a1,a1,1
8000313c:	fee78fa3          	sb	a4,-1(a5)
80003140:	0005c703          	lbu	a4,0(a1)
80003144:	fe0718e3          	bnez	a4,80003134 <strcat+0x20>
80003148:	00078023          	sb	zero,0(a5)
8000314c:	00008067          	ret
80003150:	00050793          	mv	a5,a0
80003154:	fedff06f          	j	80003140 <strcat+0x2c>

80003158 <strncat>:
80003158:	00054783          	lbu	a5,0(a0)
8000315c:	04078663          	beqz	a5,800031a8 <strncat+0x50>
80003160:	00050793          	mv	a5,a0
80003164:	0017c703          	lbu	a4,1(a5)
80003168:	00178793          	addi	a5,a5,1
8000316c:	fe071ce3          	bnez	a4,80003164 <strncat+0xc>
80003170:	0005c683          	lbu	a3,0(a1)
80003174:	02060663          	beqz	a2,800031a0 <strncat+0x48>
80003178:	02068463          	beqz	a3,800031a0 <strncat+0x48>
8000317c:	00058713          	mv	a4,a1
80003180:	0080006f          	j	80003188 <strncat+0x30>
80003184:	00068e63          	beqz	a3,800031a0 <strncat+0x48>
80003188:	00170713          	addi	a4,a4,1
8000318c:	00d78023          	sb	a3,0(a5)
80003190:	40c70833          	sub	a6,a4,a2
80003194:	00178793          	addi	a5,a5,1
80003198:	00074683          	lbu	a3,0(a4)
8000319c:	feb814e3          	bne	a6,a1,80003184 <strncat+0x2c>
800031a0:	00078023          	sb	zero,0(a5)
800031a4:	00008067          	ret
800031a8:	00050793          	mv	a5,a0
800031ac:	fc5ff06f          	j	80003170 <strncat+0x18>

800031b0 <strcmp>:
800031b0:	01c0006f          	j	800031cc <strcmp+0x1c>
800031b4:	00054783          	lbu	a5,0(a0)
800031b8:	0005c703          	lbu	a4,0(a1)
800031bc:	00150513          	addi	a0,a0,1
800031c0:	00158593          	addi	a1,a1,1
800031c4:	24e79063          	bne	a5,a4,80003404 <strcmp+0x254>
800031c8:	24078663          	beqz	a5,80003414 <strcmp+0x264>
800031cc:	00a5c7b3          	xor	a5,a1,a0
800031d0:	0037f793          	andi	a5,a5,3
800031d4:	fe0790e3          	bnez	a5,800031b4 <strcmp+0x4>
800031d8:	01c0006f          	j	800031f4 <strcmp+0x44>
800031dc:	00054783          	lbu	a5,0(a0)
800031e0:	0005c703          	lbu	a4,0(a1)
800031e4:	00150513          	addi	a0,a0,1
800031e8:	00158593          	addi	a1,a1,1
800031ec:	20e79c63          	bne	a5,a4,80003404 <strcmp+0x254>
800031f0:	22078263          	beqz	a5,80003414 <strcmp+0x264>
800031f4:	00357793          	andi	a5,a0,3
800031f8:	fe0792e3          	bnez	a5,800031dc <strcmp+0x2c>
800031fc:	00052803          	lw	a6,0(a0)
80003200:	0005a603          	lw	a2,0(a1)
80003204:	feff07b7          	lui	a5,0xfeff0
80003208:	eff78793          	addi	a5,a5,-257 # fefefeff <__stack_top+0x7efd9b2f>
8000320c:	fff64693          	not	a3,a2
80003210:	00f608b3          	add	a7,a2,a5
80003214:	00f80333          	add	t1,a6,a5
80003218:	fff84713          	not	a4,a6
8000321c:	00d8f8b3          	and	a7,a7,a3
80003220:	00677733          	and	a4,a4,t1
80003224:	808086b7          	lui	a3,0x80808
80003228:	01176733          	or	a4,a4,a7
8000322c:	08068693          	addi	a3,a3,128 # 80808080 <__stack_top+0x7f1cb0>
80003230:	01064633          	xor	a2,a2,a6
80003234:	00d77733          	and	a4,a4,a3
80003238:	00c76733          	or	a4,a4,a2
8000323c:	1a071a63          	bnez	a4,800033f0 <strcmp+0x240>
80003240:	00452603          	lw	a2,4(a0)
80003244:	0045a803          	lw	a6,4(a1)
80003248:	00f60733          	add	a4,a2,a5
8000324c:	fff64e13          	not	t3,a2
80003250:	00f808b3          	add	a7,a6,a5
80003254:	fff84313          	not	t1,a6
80003258:	01c77733          	and	a4,a4,t3
8000325c:	0068f8b3          	and	a7,a7,t1
80003260:	01176733          	or	a4,a4,a7
80003264:	01064633          	xor	a2,a2,a6
80003268:	00d77733          	and	a4,a4,a3
8000326c:	00c76733          	or	a4,a4,a2
80003270:	1a071663          	bnez	a4,8000341c <strcmp+0x26c>
80003274:	00852603          	lw	a2,8(a0)
80003278:	0085a803          	lw	a6,8(a1)
8000327c:	00f60733          	add	a4,a2,a5
80003280:	fff64e13          	not	t3,a2
80003284:	00f808b3          	add	a7,a6,a5
80003288:	fff84313          	not	t1,a6
8000328c:	01c77733          	and	a4,a4,t3
80003290:	0068f8b3          	and	a7,a7,t1
80003294:	01176733          	or	a4,a4,a7
80003298:	01064633          	xor	a2,a2,a6
8000329c:	00d77733          	and	a4,a4,a3
800032a0:	00c76733          	or	a4,a4,a2
800032a4:	18071263          	bnez	a4,80003428 <strcmp+0x278>
800032a8:	00c52603          	lw	a2,12(a0)
800032ac:	00c5a803          	lw	a6,12(a1)
800032b0:	00f60733          	add	a4,a2,a5
800032b4:	fff64e13          	not	t3,a2
800032b8:	00f808b3          	add	a7,a6,a5
800032bc:	fff84313          	not	t1,a6
800032c0:	01c77733          	and	a4,a4,t3
800032c4:	0068f8b3          	and	a7,a7,t1
800032c8:	01176733          	or	a4,a4,a7
800032cc:	01064633          	xor	a2,a2,a6
800032d0:	00d77733          	and	a4,a4,a3
800032d4:	00c76733          	or	a4,a4,a2
800032d8:	14071e63          	bnez	a4,80003434 <strcmp+0x284>
800032dc:	01052603          	lw	a2,16(a0)
800032e0:	0105a803          	lw	a6,16(a1)
800032e4:	00f60733          	add	a4,a2,a5
800032e8:	fff64e13          	not	t3,a2
800032ec:	00f808b3          	add	a7,a6,a5
800032f0:	fff84313          	not	t1,a6
800032f4:	01c77733          	and	a4,a4,t3
800032f8:	0068f8b3          	and	a7,a7,t1
800032fc:	01176733          	or	a4,a4,a7
80003300:	01064633          	xor	a2,a2,a6
80003304:	00d77733          	and	a4,a4,a3
80003308:	00c76733          	or	a4,a4,a2
8000330c:	12071a63          	bnez	a4,80003440 <strcmp+0x290>
80003310:	01452603          	lw	a2,20(a0)
80003314:	0145a803          	lw	a6,20(a1)
80003318:	00f60733          	add	a4,a2,a5
8000331c:	fff64e13          	not	t3,a2
80003320:	00f808b3          	add	a7,a6,a5
80003324:	fff84313          	not	t1,a6
80003328:	01c77733          	and	a4,a4,t3
8000332c:	0068f8b3          	and	a7,a7,t1
80003330:	01176733          	or	a4,a4,a7
80003334:	01064633          	xor	a2,a2,a6
80003338:	00d77733          	and	a4,a4,a3
8000333c:	00c76733          	or	a4,a4,a2
80003340:	10071663          	bnez	a4,8000344c <strcmp+0x29c>
80003344:	01852603          	lw	a2,24(a0)
80003348:	0185a803          	lw	a6,24(a1)
8000334c:	00f60733          	add	a4,a2,a5
80003350:	fff64e13          	not	t3,a2
80003354:	00f808b3          	add	a7,a6,a5
80003358:	fff84313          	not	t1,a6
8000335c:	01c77733          	and	a4,a4,t3
80003360:	0068f8b3          	and	a7,a7,t1
80003364:	01176733          	or	a4,a4,a7
80003368:	01064633          	xor	a2,a2,a6
8000336c:	00d77733          	and	a4,a4,a3
80003370:	00c76733          	or	a4,a4,a2
80003374:	0e071263          	bnez	a4,80003458 <strcmp+0x2a8>
80003378:	01c52603          	lw	a2,28(a0)
8000337c:	01c5a803          	lw	a6,28(a1)
80003380:	00f60733          	add	a4,a2,a5
80003384:	fff64e13          	not	t3,a2
80003388:	00f808b3          	add	a7,a6,a5
8000338c:	fff84313          	not	t1,a6
80003390:	01c77733          	and	a4,a4,t3
80003394:	0068f8b3          	and	a7,a7,t1
80003398:	01176733          	or	a4,a4,a7
8000339c:	01064633          	xor	a2,a2,a6
800033a0:	00d77733          	and	a4,a4,a3
800033a4:	00c76733          	or	a4,a4,a2
800033a8:	0a071e63          	bnez	a4,80003464 <strcmp+0x2b4>
800033ac:	02052603          	lw	a2,32(a0)
800033b0:	0205a803          	lw	a6,32(a1)
800033b4:	02050513          	addi	a0,a0,32
800033b8:	00f60733          	add	a4,a2,a5
800033bc:	fff64e13          	not	t3,a2
800033c0:	00f808b3          	add	a7,a6,a5
800033c4:	fff84313          	not	t1,a6
800033c8:	01c77733          	and	a4,a4,t3
800033cc:	0068f8b3          	and	a7,a7,t1
800033d0:	01176733          	or	a4,a4,a7
800033d4:	01064633          	xor	a2,a2,a6
800033d8:	00d77733          	and	a4,a4,a3
800033dc:	00c76733          	or	a4,a4,a2
800033e0:	02058593          	addi	a1,a1,32
800033e4:	e4070ee3          	beqz	a4,80003240 <strcmp+0x90>
800033e8:	0080006f          	j	800033f0 <strcmp+0x240>
800033ec:	02078463          	beqz	a5,80003414 <strcmp+0x264>
800033f0:	00054783          	lbu	a5,0(a0)
800033f4:	0005c703          	lbu	a4,0(a1)
800033f8:	00150513          	addi	a0,a0,1
800033fc:	00158593          	addi	a1,a1,1
80003400:	fee786e3          	beq	a5,a4,800033ec <strcmp+0x23c>
80003404:	00e7b533          	sltu	a0,a5,a4
80003408:	40a00533          	neg	a0,a0
8000340c:	00156513          	ori	a0,a0,1
80003410:	00008067          	ret
80003414:	00000513          	li	a0,0
80003418:	00008067          	ret
8000341c:	00450513          	addi	a0,a0,4
80003420:	00458593          	addi	a1,a1,4
80003424:	fcdff06f          	j	800033f0 <strcmp+0x240>
80003428:	00850513          	addi	a0,a0,8
8000342c:	00858593          	addi	a1,a1,8
80003430:	fc1ff06f          	j	800033f0 <strcmp+0x240>
80003434:	00c50513          	addi	a0,a0,12
80003438:	00c58593          	addi	a1,a1,12
8000343c:	fb5ff06f          	j	800033f0 <strcmp+0x240>
80003440:	01050513          	addi	a0,a0,16
80003444:	01058593          	addi	a1,a1,16
80003448:	fa9ff06f          	j	800033f0 <strcmp+0x240>
8000344c:	01450513          	addi	a0,a0,20
80003450:	01458593          	addi	a1,a1,20
80003454:	f9dff06f          	j	800033f0 <strcmp+0x240>
80003458:	01850513          	addi	a0,a0,24
8000345c:	01858593          	addi	a1,a1,24
80003460:	f91ff06f          	j	800033f0 <strcmp+0x240>
80003464:	01c50513          	addi	a0,a0,28
80003468:	01c58593          	addi	a1,a1,28
8000346c:	f85ff06f          	j	800033f0 <strcmp+0x240>

80003470 <strncmp>:
80003470:	fff58593          	addi	a1,a1,-1
80003474:	fff50713          	addi	a4,a0,-1
80003478:	00c0006f          	j	80003484 <strncmp+0x14>
8000347c:	02078c63          	beqz	a5,800034b4 <strncmp+0x44>
80003480:	02068a63          	beqz	a3,800034b4 <strncmp+0x44>
80003484:	00170713          	addi	a4,a4,1
80003488:	00074683          	lbu	a3,0(a4)
8000348c:	0015c803          	lbu	a6,1(a1)
80003490:	40e607b3          	sub	a5,a2,a4
80003494:	fff78793          	addi	a5,a5,-1
80003498:	00158593          	addi	a1,a1,1
8000349c:	00f507b3          	add	a5,a0,a5
800034a0:	fd068ee3          	beq	a3,a6,8000347c <strncmp+0xc>
800034a4:	00100513          	li	a0,1
800034a8:	0106f463          	bgeu	a3,a6,800034b0 <strncmp+0x40>
800034ac:	fff00513          	li	a0,-1
800034b0:	00008067          	ret
800034b4:	00000513          	li	a0,0
800034b8:	00008067          	ret

800034bc <clock>:
800034bc:	b0002673          	csrr	a2,mcycle
800034c0:	b80027f3          	csrr	a5,mcycleh
800034c4:	00100737          	lui	a4,0x100
800034c8:	00c79593          	slli	a1,a5,0xc
800034cc:	01465693          	srli	a3,a2,0x14
800034d0:	fff70713          	addi	a4,a4,-1 # fffff <__heap_size+0xf2fff>
800034d4:	00d586b3          	add	a3,a1,a3
800034d8:	00e6f6b3          	and	a3,a3,a4
800034dc:	00e67533          	and	a0,a2,a4
800034e0:	00d50533          	add	a0,a0,a3
800034e4:	0087d693          	srli	a3,a5,0x8
800034e8:	00e6f733          	and	a4,a3,a4
800034ec:	00e50533          	add	a0,a0,a4
800034f0:	41f7d693          	srai	a3,a5,0x1f
800034f4:	01c7d713          	srli	a4,a5,0x1c
800034f8:	00e50533          	add	a0,a0,a4
800034fc:	0216f713          	andi	a4,a3,33
80003500:	00e50533          	add	a0,a0,a4
80003504:	51eb8737          	lui	a4,0x51eb8
80003508:	51f70713          	addi	a4,a4,1311 # 51eb851f <__heap_size+0x51eab51f>
8000350c:	02e53733          	mulhu	a4,a0,a4
80003510:	fe86f893          	andi	a7,a3,-24
80003514:	c28f65b7          	lui	a1,0xc28f6
80003518:	8f5c3837          	lui	a6,0x8f5c3
8000351c:	c2958593          	addi	a1,a1,-983 # c28f5c29 <__stack_top+0x428df859>
80003520:	8f580813          	addi	a6,a6,-1803 # 8f5c28f5 <__stack_top+0xf5ac525>
80003524:	00375713          	srli	a4,a4,0x3
80003528:	00171693          	slli	a3,a4,0x1
8000352c:	00e686b3          	add	a3,a3,a4
80003530:	00369693          	slli	a3,a3,0x3
80003534:	00e68733          	add	a4,a3,a4
80003538:	40e50533          	sub	a0,a0,a4
8000353c:	01150533          	add	a0,a0,a7
80003540:	41f55713          	srai	a4,a0,0x1f
80003544:	40a60533          	sub	a0,a2,a0
80003548:	00a63633          	sltu	a2,a2,a0
8000354c:	40e78733          	sub	a4,a5,a4
80003550:	40c70733          	sub	a4,a4,a2
80003554:	030507b3          	mul	a5,a0,a6
80003558:	02b70733          	mul	a4,a4,a1
8000355c:	02b536b3          	mulhu	a3,a0,a1
80003560:	00f70733          	add	a4,a4,a5
80003564:	02b50533          	mul	a0,a0,a1
80003568:	00d70733          	add	a4,a4,a3
8000356c:	01f75693          	srli	a3,a4,0x1f
80003570:	00a687b3          	add	a5,a3,a0
80003574:	00d7b533          	sltu	a0,a5,a3
80003578:	00e50533          	add	a0,a0,a4
8000357c:	0017d793          	srli	a5,a5,0x1
80003580:	01f51513          	slli	a0,a0,0x1f
80003584:	00f50533          	add	a0,a0,a5
80003588:	00008067          	ret

8000358c <inbyte>:
8000358c:	c0000737          	lui	a4,0xc0000
80003590:	00870713          	addi	a4,a4,8 # c0000008 <__stack_top+0x3ffe9c38>
80003594:	c00006b7          	lui	a3,0xc0000
80003598:	00072783          	lw	a5,0(a4)
8000359c:	0017f793          	andi	a5,a5,1
800035a0:	fe078ce3          	beqz	a5,80003598 <inbyte+0xc>
800035a4:	0006a503          	lw	a0,0(a3) # c0000000 <__stack_top+0x3ffe9c30>
800035a8:	0ff57513          	zext.b	a0,a0
800035ac:	00008067          	ret

800035b0 <outbyte>:
800035b0:	00a00793          	li	a5,10
800035b4:	02f50263          	beq	a0,a5,800035d8 <outbyte+0x28>
800035b8:	c0000737          	lui	a4,0xc0000
800035bc:	00870713          	addi	a4,a4,8 # c0000008 <__stack_top+0x3ffe9c38>
800035c0:	00072783          	lw	a5,0(a4)
800035c4:	0087f793          	andi	a5,a5,8
800035c8:	fe079ce3          	bnez	a5,800035c0 <outbyte+0x10>
800035cc:	c00007b7          	lui	a5,0xc0000
800035d0:	00a7a223          	sw	a0,4(a5) # c0000004 <__stack_top+0x3ffe9c34>
800035d4:	00008067          	ret
800035d8:	c0000737          	lui	a4,0xc0000
800035dc:	00870713          	addi	a4,a4,8 # c0000008 <__stack_top+0x3ffe9c38>
800035e0:	00072783          	lw	a5,0(a4)
800035e4:	0087f793          	andi	a5,a5,8
800035e8:	fe079ce3          	bnez	a5,800035e0 <outbyte+0x30>
800035ec:	c00007b7          	lui	a5,0xc0000
800035f0:	00d00713          	li	a4,13
800035f4:	00e7a223          	sw	a4,4(a5) # c0000004 <__stack_top+0x3ffe9c34>
800035f8:	fc1ff06f          	j	800035b8 <outbyte+0x8>

800035fc <__udivdi3>:
800035fc:	00060713          	mv	a4,a2
80003600:	00068893          	mv	a7,a3
80003604:	00050813          	mv	a6,a0
80003608:	00058313          	mv	t1,a1
8000360c:	24069463          	bnez	a3,80003854 <__udivdi3+0x258>
80003610:	800087b7          	lui	a5,0x80008
80003614:	27c78793          	addi	a5,a5,636 # 8000827c <__clz_tab>
80003618:	0ec5f463          	bgeu	a1,a2,80003700 <__udivdi3+0x104>
8000361c:	000106b7          	lui	a3,0x10
80003620:	0cd67063          	bgeu	a2,a3,800036e0 <__udivdi3+0xe4>
80003624:	10063693          	sltiu	a3,a2,256
80003628:	0016b693          	seqz	a3,a3
8000362c:	00369693          	slli	a3,a3,0x3
80003630:	00d65e33          	srl	t3,a2,a3
80003634:	01c787b3          	add	a5,a5,t3
80003638:	0007c783          	lbu	a5,0(a5)
8000363c:	00d787b3          	add	a5,a5,a3
80003640:	02000693          	li	a3,32
80003644:	00d78e63          	beq	a5,a3,80003660 <__udivdi3+0x64>
80003648:	40f686b3          	sub	a3,a3,a5
8000364c:	00d59333          	sll	t1,a1,a3
80003650:	00f557b3          	srl	a5,a0,a5
80003654:	00d61733          	sll	a4,a2,a3
80003658:	0067e333          	or	t1,a5,t1
8000365c:	00d51833          	sll	a6,a0,a3
80003660:	01075513          	srli	a0,a4,0x10
80003664:	02a357b3          	divu	a5,t1,a0
80003668:	01071593          	slli	a1,a4,0x10
8000366c:	0105d593          	srli	a1,a1,0x10
80003670:	01085693          	srli	a3,a6,0x10
80003674:	02a37333          	remu	t1,t1,a0
80003678:	02f58633          	mul	a2,a1,a5
8000367c:	01031313          	slli	t1,t1,0x10
80003680:	0066e6b3          	or	a3,a3,t1
80003684:	00c6fa63          	bgeu	a3,a2,80003698 <__udivdi3+0x9c>
80003688:	00d706b3          	add	a3,a4,a3
8000368c:	00c6f463          	bgeu	a3,a2,80003694 <__udivdi3+0x98>
80003690:	06e6f263          	bgeu	a3,a4,800036f4 <__udivdi3+0xf8>
80003694:	fff78793          	addi	a5,a5,-1
80003698:	40c686b3          	sub	a3,a3,a2
8000369c:	02a6d633          	divu	a2,a3,a0
800036a0:	01081813          	slli	a6,a6,0x10
800036a4:	01085813          	srli	a6,a6,0x10
800036a8:	02a6f6b3          	remu	a3,a3,a0
800036ac:	02c585b3          	mul	a1,a1,a2
800036b0:	01069693          	slli	a3,a3,0x10
800036b4:	00d86833          	or	a6,a6,a3
800036b8:	00b87a63          	bgeu	a6,a1,800036cc <__udivdi3+0xd0>
800036bc:	01070833          	add	a6,a4,a6
800036c0:	00b87463          	bgeu	a6,a1,800036c8 <__udivdi3+0xcc>
800036c4:	18e87463          	bgeu	a6,a4,8000384c <__udivdi3+0x250>
800036c8:	fff60613          	addi	a2,a2,-1
800036cc:	01079793          	slli	a5,a5,0x10
800036d0:	00c7e7b3          	or	a5,a5,a2
800036d4:	00078513          	mv	a0,a5
800036d8:	00088593          	mv	a1,a7
800036dc:	00008067          	ret
800036e0:	01000e37          	lui	t3,0x1000
800036e4:	01800693          	li	a3,24
800036e8:	f5c674e3          	bgeu	a2,t3,80003630 <__udivdi3+0x34>
800036ec:	01000693          	li	a3,16
800036f0:	f41ff06f          	j	80003630 <__udivdi3+0x34>
800036f4:	ffe78793          	addi	a5,a5,-2
800036f8:	00e686b3          	add	a3,a3,a4
800036fc:	f9dff06f          	j	80003698 <__udivdi3+0x9c>
80003700:	00000693          	li	a3,0
80003704:	00060c63          	beqz	a2,8000371c <__udivdi3+0x120>
80003708:	000106b7          	lui	a3,0x10
8000370c:	06d67863          	bgeu	a2,a3,8000377c <__udivdi3+0x180>
80003710:	10063693          	sltiu	a3,a2,256
80003714:	0016b693          	seqz	a3,a3
80003718:	00369693          	slli	a3,a3,0x3
8000371c:	00d658b3          	srl	a7,a2,a3
80003720:	011787b3          	add	a5,a5,a7
80003724:	0007c783          	lbu	a5,0(a5)
80003728:	00d787b3          	add	a5,a5,a3
8000372c:	02000693          	li	a3,32
80003730:	06d79063          	bne	a5,a3,80003790 <__udivdi3+0x194>
80003734:	40c58633          	sub	a2,a1,a2
80003738:	00100893          	li	a7,1
8000373c:	01075513          	srli	a0,a4,0x10
80003740:	02a657b3          	divu	a5,a2,a0
80003744:	01071593          	slli	a1,a4,0x10
80003748:	0105d593          	srli	a1,a1,0x10
8000374c:	01085693          	srli	a3,a6,0x10
80003750:	02a67633          	remu	a2,a2,a0
80003754:	02f58333          	mul	t1,a1,a5
80003758:	01061613          	slli	a2,a2,0x10
8000375c:	00c6e6b3          	or	a3,a3,a2
80003760:	0066fa63          	bgeu	a3,t1,80003774 <__udivdi3+0x178>
80003764:	00d706b3          	add	a3,a4,a3
80003768:	0066f463          	bgeu	a3,t1,80003770 <__udivdi3+0x174>
8000376c:	0ce6fa63          	bgeu	a3,a4,80003840 <__udivdi3+0x244>
80003770:	fff78793          	addi	a5,a5,-1
80003774:	406686b3          	sub	a3,a3,t1
80003778:	f25ff06f          	j	8000369c <__udivdi3+0xa0>
8000377c:	010008b7          	lui	a7,0x1000
80003780:	01800693          	li	a3,24
80003784:	f9167ce3          	bgeu	a2,a7,8000371c <__udivdi3+0x120>
80003788:	01000693          	li	a3,16
8000378c:	f91ff06f          	j	8000371c <__udivdi3+0x120>
80003790:	40f68833          	sub	a6,a3,a5
80003794:	01061733          	sll	a4,a2,a6
80003798:	00f5d6b3          	srl	a3,a1,a5
8000379c:	010595b3          	sll	a1,a1,a6
800037a0:	00f557b3          	srl	a5,a0,a5
800037a4:	01051833          	sll	a6,a0,a6
800037a8:	01075513          	srli	a0,a4,0x10
800037ac:	02a6d8b3          	divu	a7,a3,a0
800037b0:	01071613          	slli	a2,a4,0x10
800037b4:	01065613          	srli	a2,a2,0x10
800037b8:	00b7e7b3          	or	a5,a5,a1
800037bc:	02a6f6b3          	remu	a3,a3,a0
800037c0:	03160333          	mul	t1,a2,a7
800037c4:	01069593          	slli	a1,a3,0x10
800037c8:	0107d693          	srli	a3,a5,0x10
800037cc:	00b6e6b3          	or	a3,a3,a1
800037d0:	0066fa63          	bgeu	a3,t1,800037e4 <__udivdi3+0x1e8>
800037d4:	00d706b3          	add	a3,a4,a3
800037d8:	0066f463          	bgeu	a3,t1,800037e0 <__udivdi3+0x1e4>
800037dc:	04e6f663          	bgeu	a3,a4,80003828 <__udivdi3+0x22c>
800037e0:	fff88893          	addi	a7,a7,-1 # ffffff <__heap_size+0xff2fff>
800037e4:	406686b3          	sub	a3,a3,t1
800037e8:	02a6d5b3          	divu	a1,a3,a0
800037ec:	01079793          	slli	a5,a5,0x10
800037f0:	0107d793          	srli	a5,a5,0x10
800037f4:	02a6f6b3          	remu	a3,a3,a0
800037f8:	02b60633          	mul	a2,a2,a1
800037fc:	01069693          	slli	a3,a3,0x10
80003800:	00d7e7b3          	or	a5,a5,a3
80003804:	00c7fa63          	bgeu	a5,a2,80003818 <__udivdi3+0x21c>
80003808:	00f707b3          	add	a5,a4,a5
8000380c:	00c7f463          	bgeu	a5,a2,80003814 <__udivdi3+0x218>
80003810:	02e7f263          	bgeu	a5,a4,80003834 <__udivdi3+0x238>
80003814:	fff58593          	addi	a1,a1,-1
80003818:	01089893          	slli	a7,a7,0x10
8000381c:	40c78633          	sub	a2,a5,a2
80003820:	00b8e8b3          	or	a7,a7,a1
80003824:	f19ff06f          	j	8000373c <__udivdi3+0x140>
80003828:	ffe88893          	addi	a7,a7,-2
8000382c:	00e686b3          	add	a3,a3,a4
80003830:	fb5ff06f          	j	800037e4 <__udivdi3+0x1e8>
80003834:	ffe58593          	addi	a1,a1,-2
80003838:	00e787b3          	add	a5,a5,a4
8000383c:	fddff06f          	j	80003818 <__udivdi3+0x21c>
80003840:	ffe78793          	addi	a5,a5,-2
80003844:	00e686b3          	add	a3,a3,a4
80003848:	f2dff06f          	j	80003774 <__udivdi3+0x178>
8000384c:	ffe60613          	addi	a2,a2,-2
80003850:	e7dff06f          	j	800036cc <__udivdi3+0xd0>
80003854:	18d5e463          	bltu	a1,a3,800039dc <__udivdi3+0x3e0>
80003858:	000107b7          	lui	a5,0x10
8000385c:	04f6f463          	bgeu	a3,a5,800038a4 <__udivdi3+0x2a8>
80003860:	1006b793          	sltiu	a5,a3,256
80003864:	0017b793          	seqz	a5,a5
80003868:	00379793          	slli	a5,a5,0x3
8000386c:	80008737          	lui	a4,0x80008
80003870:	00f6d833          	srl	a6,a3,a5
80003874:	27c70713          	addi	a4,a4,636 # 8000827c <__clz_tab>
80003878:	01070733          	add	a4,a4,a6
8000387c:	00074703          	lbu	a4,0(a4)
80003880:	02000813          	li	a6,32
80003884:	00f70733          	add	a4,a4,a5
80003888:	03071863          	bne	a4,a6,800038b8 <__udivdi3+0x2bc>
8000388c:	00c537b3          	sltu	a5,a0,a2
80003890:	0017b793          	seqz	a5,a5
80003894:	00b6b6b3          	sltu	a3,a3,a1
80003898:	00d7e7b3          	or	a5,a5,a3
8000389c:	00000893          	li	a7,0
800038a0:	e35ff06f          	j	800036d4 <__udivdi3+0xd8>
800038a4:	01000737          	lui	a4,0x1000
800038a8:	01800793          	li	a5,24
800038ac:	fce6f0e3          	bgeu	a3,a4,8000386c <__udivdi3+0x270>
800038b0:	01000793          	li	a5,16
800038b4:	fb9ff06f          	j	8000386c <__udivdi3+0x270>
800038b8:	40e80833          	sub	a6,a6,a4
800038bc:	00e658b3          	srl	a7,a2,a4
800038c0:	010696b3          	sll	a3,a3,a6
800038c4:	00d8e8b3          	or	a7,a7,a3
800038c8:	0108de13          	srli	t3,a7,0x10
800038cc:	00e5d6b3          	srl	a3,a1,a4
800038d0:	03c6d7b3          	divu	a5,a3,t3
800038d4:	01089313          	slli	t1,a7,0x10
800038d8:	01035313          	srli	t1,t1,0x10
800038dc:	010595b3          	sll	a1,a1,a6
800038e0:	00e55733          	srl	a4,a0,a4
800038e4:	00b76733          	or	a4,a4,a1
800038e8:	01061633          	sll	a2,a2,a6
800038ec:	03c6f6b3          	remu	a3,a3,t3
800038f0:	02f30eb3          	mul	t4,t1,a5
800038f4:	01069593          	slli	a1,a3,0x10
800038f8:	01075693          	srli	a3,a4,0x10
800038fc:	00b6e6b3          	or	a3,a3,a1
80003900:	01d6fa63          	bgeu	a3,t4,80003914 <__udivdi3+0x318>
80003904:	00d886b3          	add	a3,a7,a3
80003908:	01d6f463          	bgeu	a3,t4,80003910 <__udivdi3+0x314>
8000390c:	0b16fc63          	bgeu	a3,a7,800039c4 <__udivdi3+0x3c8>
80003910:	fff78793          	addi	a5,a5,-1 # ffff <__heap_size+0x2fff>
80003914:	41d686b3          	sub	a3,a3,t4
80003918:	03c6d5b3          	divu	a1,a3,t3
8000391c:	01071713          	slli	a4,a4,0x10
80003920:	01075713          	srli	a4,a4,0x10
80003924:	03c6f6b3          	remu	a3,a3,t3
80003928:	02b30333          	mul	t1,t1,a1
8000392c:	01069693          	slli	a3,a3,0x10
80003930:	00d76733          	or	a4,a4,a3
80003934:	00677a63          	bgeu	a4,t1,80003948 <__udivdi3+0x34c>
80003938:	00e88733          	add	a4,a7,a4
8000393c:	00677463          	bgeu	a4,t1,80003944 <__udivdi3+0x348>
80003940:	09177863          	bgeu	a4,a7,800039d0 <__udivdi3+0x3d4>
80003944:	fff58593          	addi	a1,a1,-1
80003948:	01079793          	slli	a5,a5,0x10
8000394c:	00b7e7b3          	or	a5,a5,a1
80003950:	40670733          	sub	a4,a4,t1
80003954:	01059593          	slli	a1,a1,0x10
80003958:	01061313          	slli	t1,a2,0x10
8000395c:	0105d593          	srli	a1,a1,0x10
80003960:	0107d893          	srli	a7,a5,0x10
80003964:	01035313          	srli	t1,t1,0x10
80003968:	01065613          	srli	a2,a2,0x10
8000396c:	02658e33          	mul	t3,a1,t1
80003970:	02688333          	mul	t1,a7,t1
80003974:	010e5693          	srli	a3,t3,0x10
80003978:	02c585b3          	mul	a1,a1,a2
8000397c:	006585b3          	add	a1,a1,t1
80003980:	00b686b3          	add	a3,a3,a1
80003984:	02c888b3          	mul	a7,a7,a2
80003988:	0066f663          	bgeu	a3,t1,80003994 <__udivdi3+0x398>
8000398c:	00010637          	lui	a2,0x10
80003990:	00c888b3          	add	a7,a7,a2
80003994:	0106d613          	srli	a2,a3,0x10
80003998:	01160633          	add	a2,a2,a7
8000399c:	02c76063          	bltu	a4,a2,800039bc <__udivdi3+0x3c0>
800039a0:	010e1e13          	slli	t3,t3,0x10
800039a4:	01069693          	slli	a3,a3,0x10
800039a8:	010e5e13          	srli	t3,t3,0x10
800039ac:	01051533          	sll	a0,a0,a6
800039b0:	01c686b3          	add	a3,a3,t3
800039b4:	eed574e3          	bgeu	a0,a3,8000389c <__udivdi3+0x2a0>
800039b8:	eec712e3          	bne	a4,a2,8000389c <__udivdi3+0x2a0>
800039bc:	fff78793          	addi	a5,a5,-1
800039c0:	eddff06f          	j	8000389c <__udivdi3+0x2a0>
800039c4:	ffe78793          	addi	a5,a5,-2
800039c8:	011686b3          	add	a3,a3,a7
800039cc:	f49ff06f          	j	80003914 <__udivdi3+0x318>
800039d0:	ffe58593          	addi	a1,a1,-2
800039d4:	01170733          	add	a4,a4,a7
800039d8:	f71ff06f          	j	80003948 <__udivdi3+0x34c>
800039dc:	00000893          	li	a7,0
800039e0:	00000793          	li	a5,0
800039e4:	cf1ff06f          	j	800036d4 <__udivdi3+0xd8>

800039e8 <__adddf3>:
800039e8:	00100737          	lui	a4,0x100
800039ec:	fe010113          	addi	sp,sp,-32
800039f0:	fff70713          	addi	a4,a4,-1 # fffff <__heap_size+0xf2fff>
800039f4:	00b777b3          	and	a5,a4,a1
800039f8:	0146d893          	srli	a7,a3,0x14
800039fc:	00d77733          	and	a4,a4,a3
80003a00:	00812c23          	sw	s0,24(sp)
80003a04:	0145d413          	srli	s0,a1,0x14
80003a08:	00371713          	slli	a4,a4,0x3
80003a0c:	01d65813          	srli	a6,a2,0x1d
80003a10:	01212823          	sw	s2,16(sp)
80003a14:	7ff47413          	andi	s0,s0,2047
80003a18:	01f5d913          	srli	s2,a1,0x1f
80003a1c:	00379793          	slli	a5,a5,0x3
80003a20:	01d55593          	srli	a1,a0,0x1d
80003a24:	7ff8f893          	andi	a7,a7,2047
80003a28:	00112e23          	sw	ra,28(sp)
80003a2c:	00912a23          	sw	s1,20(sp)
80003a30:	01312623          	sw	s3,12(sp)
80003a34:	01f6d693          	srli	a3,a3,0x1f
80003a38:	00f5e7b3          	or	a5,a1,a5
80003a3c:	00e86833          	or	a6,a6,a4
80003a40:	00351513          	slli	a0,a0,0x3
80003a44:	00361613          	slli	a2,a2,0x3
80003a48:	41140733          	sub	a4,s0,a7
80003a4c:	7ff00593          	li	a1,2047
80003a50:	30d91463          	bne	s2,a3,80003d58 <__adddf3+0x370>
80003a54:	10e05263          	blez	a4,80003b58 <__adddf3+0x170>
80003a58:	02089c63          	bnez	a7,80003a90 <__adddf3+0xa8>
80003a5c:	00c86733          	or	a4,a6,a2
80003a60:	02070463          	beqz	a4,80003a88 <__adddf3+0xa0>
80003a64:	fff40713          	addi	a4,s0,-1
80003a68:	00071e63          	bnez	a4,80003a84 <__adddf3+0x9c>
80003a6c:	00c50633          	add	a2,a0,a2
80003a70:	010787b3          	add	a5,a5,a6
80003a74:	00a63533          	sltu	a0,a2,a0
80003a78:	00a787b3          	add	a5,a5,a0
80003a7c:	00100413          	li	s0,1
80003a80:	0600006f          	j	80003ae0 <__adddf3+0xf8>
80003a84:	00b41c63          	bne	s0,a1,80003a9c <__adddf3+0xb4>
80003a88:	00050613          	mv	a2,a0
80003a8c:	1d80006f          	j	80003c64 <__adddf3+0x27c>
80003a90:	feb40ce3          	beq	s0,a1,80003a88 <__adddf3+0xa0>
80003a94:	008006b7          	lui	a3,0x800
80003a98:	00d86833          	or	a6,a6,a3
80003a9c:	03800693          	li	a3,56
80003aa0:	0ae6c663          	blt	a3,a4,80003b4c <__adddf3+0x164>
80003aa4:	01f00693          	li	a3,31
80003aa8:	02000893          	li	a7,32
80003aac:	06e6c863          	blt	a3,a4,80003b1c <__adddf3+0x134>
80003ab0:	40e888b3          	sub	a7,a7,a4
80003ab4:	011816b3          	sll	a3,a6,a7
80003ab8:	00e655b3          	srl	a1,a2,a4
80003abc:	011618b3          	sll	a7,a2,a7
80003ac0:	00b6e6b3          	or	a3,a3,a1
80003ac4:	011038b3          	snez	a7,a7
80003ac8:	0116e6b3          	or	a3,a3,a7
80003acc:	00e85733          	srl	a4,a6,a4
80003ad0:	00a68633          	add	a2,a3,a0
80003ad4:	00f70733          	add	a4,a4,a5
80003ad8:	00d636b3          	sltu	a3,a2,a3
80003adc:	00d707b3          	add	a5,a4,a3
80003ae0:	00879713          	slli	a4,a5,0x8
80003ae4:	22075663          	bgez	a4,80003d10 <__adddf3+0x328>
80003ae8:	00140413          	addi	s0,s0,1
80003aec:	7ff00713          	li	a4,2047
80003af0:	60e40863          	beq	s0,a4,80004100 <__adddf3+0x718>
80003af4:	ff800737          	lui	a4,0xff800
80003af8:	fff70713          	addi	a4,a4,-1 # ff7fffff <__stack_top+0x7f7e9c2f>
80003afc:	00e7f7b3          	and	a5,a5,a4
80003b00:	00165713          	srli	a4,a2,0x1
80003b04:	00167613          	andi	a2,a2,1
80003b08:	00c76733          	or	a4,a4,a2
80003b0c:	01f79613          	slli	a2,a5,0x1f
80003b10:	00e66633          	or	a2,a2,a4
80003b14:	0017d793          	srli	a5,a5,0x1
80003b18:	1f80006f          	j	80003d10 <__adddf3+0x328>
80003b1c:	fe070693          	addi	a3,a4,-32
80003b20:	00d856b3          	srl	a3,a6,a3
80003b24:	00000593          	li	a1,0
80003b28:	01170863          	beq	a4,a7,80003b38 <__adddf3+0x150>
80003b2c:	04000593          	li	a1,64
80003b30:	40e585b3          	sub	a1,a1,a4
80003b34:	00b815b3          	sll	a1,a6,a1
80003b38:	00c5e5b3          	or	a1,a1,a2
80003b3c:	00b035b3          	snez	a1,a1
80003b40:	00b6e6b3          	or	a3,a3,a1
80003b44:	00000713          	li	a4,0
80003b48:	f89ff06f          	j	80003ad0 <__adddf3+0xe8>
80003b4c:	00c866b3          	or	a3,a6,a2
80003b50:	00d036b3          	snez	a3,a3
80003b54:	ff1ff06f          	j	80003b44 <__adddf3+0x15c>
80003b58:	0c070263          	beqz	a4,80003c1c <__adddf3+0x234>
80003b5c:	40888733          	sub	a4,a7,s0
80003b60:	02041263          	bnez	s0,80003b84 <__adddf3+0x19c>
80003b64:	00a7e6b3          	or	a3,a5,a0
80003b68:	00068863          	beqz	a3,80003b78 <__adddf3+0x190>
80003b6c:	fff70693          	addi	a3,a4,-1
80003b70:	ee068ee3          	beqz	a3,80003a6c <__adddf3+0x84>
80003b74:	02b71063          	bne	a4,a1,80003b94 <__adddf3+0x1ac>
80003b78:	00080793          	mv	a5,a6
80003b7c:	00070413          	mv	s0,a4
80003b80:	0e40006f          	j	80003c64 <__adddf3+0x27c>
80003b84:	58b88663          	beq	a7,a1,80004110 <__adddf3+0x728>
80003b88:	008006b7          	lui	a3,0x800
80003b8c:	00d7e7b3          	or	a5,a5,a3
80003b90:	00070693          	mv	a3,a4
80003b94:	03800713          	li	a4,56
80003b98:	06d74c63          	blt	a4,a3,80003c10 <__adddf3+0x228>
80003b9c:	01f00713          	li	a4,31
80003ba0:	02000313          	li	t1,32
80003ba4:	02d74e63          	blt	a4,a3,80003be0 <__adddf3+0x1f8>
80003ba8:	40d30333          	sub	t1,t1,a3
80003bac:	00679733          	sll	a4,a5,t1
80003bb0:	00d555b3          	srl	a1,a0,a3
80003bb4:	00651333          	sll	t1,a0,t1
80003bb8:	00b76733          	or	a4,a4,a1
80003bbc:	00603333          	snez	t1,t1
80003bc0:	00676733          	or	a4,a4,t1
80003bc4:	00d7d6b3          	srl	a3,a5,a3
80003bc8:	00c70633          	add	a2,a4,a2
80003bcc:	010686b3          	add	a3,a3,a6
80003bd0:	00e63733          	sltu	a4,a2,a4
80003bd4:	00e687b3          	add	a5,a3,a4
80003bd8:	00088413          	mv	s0,a7
80003bdc:	f05ff06f          	j	80003ae0 <__adddf3+0xf8>
80003be0:	fe068713          	addi	a4,a3,-32 # 7fffe0 <__heap_size+0x7f2fe0>
80003be4:	00e7d733          	srl	a4,a5,a4
80003be8:	00000593          	li	a1,0
80003bec:	00668863          	beq	a3,t1,80003bfc <__adddf3+0x214>
80003bf0:	04000593          	li	a1,64
80003bf4:	40d585b3          	sub	a1,a1,a3
80003bf8:	00b795b3          	sll	a1,a5,a1
80003bfc:	00a5e5b3          	or	a1,a1,a0
80003c00:	00b035b3          	snez	a1,a1
80003c04:	00b76733          	or	a4,a4,a1
80003c08:	00000693          	li	a3,0
80003c0c:	fbdff06f          	j	80003bc8 <__adddf3+0x1e0>
80003c10:	00a7e733          	or	a4,a5,a0
80003c14:	00e03733          	snez	a4,a4
80003c18:	ff1ff06f          	j	80003c08 <__adddf3+0x220>
80003c1c:	00140713          	addi	a4,s0,1
80003c20:	7fe77693          	andi	a3,a4,2046
80003c24:	0c069263          	bnez	a3,80003ce8 <__adddf3+0x300>
80003c28:	00a7e733          	or	a4,a5,a0
80003c2c:	0a041463          	bnez	s0,80003cd4 <__adddf3+0x2ec>
80003c30:	4a070863          	beqz	a4,800040e0 <__adddf3+0x6f8>
80003c34:	00c86733          	or	a4,a6,a2
80003c38:	4a070863          	beqz	a4,800040e8 <__adddf3+0x700>
80003c3c:	00c50633          	add	a2,a0,a2
80003c40:	010787b3          	add	a5,a5,a6
80003c44:	00a63533          	sltu	a0,a2,a0
80003c48:	00a787b3          	add	a5,a5,a0
80003c4c:	00879713          	slli	a4,a5,0x8
80003c50:	32075a63          	bgez	a4,80003f84 <__adddf3+0x59c>
80003c54:	ff800737          	lui	a4,0xff800
80003c58:	fff70713          	addi	a4,a4,-1 # ff7fffff <__stack_top+0x7f7e9c2f>
80003c5c:	00e7f7b3          	and	a5,a5,a4
80003c60:	00100413          	li	s0,1
80003c64:	01d79713          	slli	a4,a5,0x1d
80003c68:	00365613          	srli	a2,a2,0x3
80003c6c:	7ff00693          	li	a3,2047
80003c70:	00c76733          	or	a4,a4,a2
80003c74:	0037d793          	srli	a5,a5,0x3
80003c78:	00d41e63          	bne	s0,a3,80003c94 <__adddf3+0x2ac>
80003c7c:	00f76733          	or	a4,a4,a5
80003c80:	00000793          	li	a5,0
80003c84:	00070863          	beqz	a4,80003c94 <__adddf3+0x2ac>
80003c88:	000807b7          	lui	a5,0x80
80003c8c:	00000713          	li	a4,0
80003c90:	00000913          	li	s2,0
80003c94:	7ff47413          	andi	s0,s0,2047
80003c98:	00c79793          	slli	a5,a5,0xc
80003c9c:	00c7d793          	srli	a5,a5,0xc
80003ca0:	01441413          	slli	s0,s0,0x14
80003ca4:	01f91593          	slli	a1,s2,0x1f
80003ca8:	00f46433          	or	s0,s0,a5
80003cac:	01c12083          	lw	ra,28(sp)
80003cb0:	00b467b3          	or	a5,s0,a1
80003cb4:	01812403          	lw	s0,24(sp)
80003cb8:	01412483          	lw	s1,20(sp)
80003cbc:	01012903          	lw	s2,16(sp)
80003cc0:	00c12983          	lw	s3,12(sp)
80003cc4:	00070513          	mv	a0,a4
80003cc8:	00078593          	mv	a1,a5
80003ccc:	02010113          	addi	sp,sp,32
80003cd0:	00008067          	ret
80003cd4:	40070e63          	beqz	a4,800040f0 <__adddf3+0x708>
80003cd8:	00c86833          	or	a6,a6,a2
80003cdc:	2c081c63          	bnez	a6,80003fb4 <__adddf3+0x5cc>
80003ce0:	00050613          	mv	a2,a0
80003ce4:	4100006f          	j	800040f4 <__adddf3+0x70c>
80003ce8:	40b70a63          	beq	a4,a1,800040fc <__adddf3+0x714>
80003cec:	00c50633          	add	a2,a0,a2
80003cf0:	00a63533          	sltu	a0,a2,a0
80003cf4:	010787b3          	add	a5,a5,a6
80003cf8:	00a787b3          	add	a5,a5,a0
80003cfc:	01f79693          	slli	a3,a5,0x1f
80003d00:	00165613          	srli	a2,a2,0x1
80003d04:	00c6e633          	or	a2,a3,a2
80003d08:	0017d793          	srli	a5,a5,0x1
80003d0c:	00070413          	mv	s0,a4
80003d10:	00767713          	andi	a4,a2,7
80003d14:	02070063          	beqz	a4,80003d34 <__adddf3+0x34c>
80003d18:	00f67713          	andi	a4,a2,15
80003d1c:	00400693          	li	a3,4
80003d20:	00d70a63          	beq	a4,a3,80003d34 <__adddf3+0x34c>
80003d24:	00d60733          	add	a4,a2,a3
80003d28:	00c736b3          	sltu	a3,a4,a2
80003d2c:	00d787b3          	add	a5,a5,a3
80003d30:	00070613          	mv	a2,a4
80003d34:	00879713          	slli	a4,a5,0x8
80003d38:	f20756e3          	bgez	a4,80003c64 <__adddf3+0x27c>
80003d3c:	00140413          	addi	s0,s0,1
80003d40:	7ff00713          	li	a4,2047
80003d44:	3ae40e63          	beq	s0,a4,80004100 <__adddf3+0x718>
80003d48:	ff800737          	lui	a4,0xff800
80003d4c:	fff70713          	addi	a4,a4,-1 # ff7fffff <__stack_top+0x7f7e9c2f>
80003d50:	00e7f7b3          	and	a5,a5,a4
80003d54:	f11ff06f          	j	80003c64 <__adddf3+0x27c>
80003d58:	0ee05063          	blez	a4,80003e38 <__adddf3+0x450>
80003d5c:	08089863          	bnez	a7,80003dec <__adddf3+0x404>
80003d60:	00c86733          	or	a4,a6,a2
80003d64:	d20702e3          	beqz	a4,80003a88 <__adddf3+0xa0>
80003d68:	fff40713          	addi	a4,s0,-1
80003d6c:	00071e63          	bnez	a4,80003d88 <__adddf3+0x3a0>
80003d70:	40c50633          	sub	a2,a0,a2
80003d74:	410787b3          	sub	a5,a5,a6
80003d78:	00c53533          	sltu	a0,a0,a2
80003d7c:	40a787b3          	sub	a5,a5,a0
80003d80:	00100413          	li	s0,1
80003d84:	04c0006f          	j	80003dd0 <__adddf3+0x3e8>
80003d88:	d0b400e3          	beq	s0,a1,80003a88 <__adddf3+0xa0>
80003d8c:	03800693          	li	a3,56
80003d90:	08e6ce63          	blt	a3,a4,80003e2c <__adddf3+0x444>
80003d94:	01f00693          	li	a3,31
80003d98:	02000893          	li	a7,32
80003d9c:	06e6c063          	blt	a3,a4,80003dfc <__adddf3+0x414>
80003da0:	40e888b3          	sub	a7,a7,a4
80003da4:	011816b3          	sll	a3,a6,a7
80003da8:	00e655b3          	srl	a1,a2,a4
80003dac:	011618b3          	sll	a7,a2,a7
80003db0:	00b6e6b3          	or	a3,a3,a1
80003db4:	011038b3          	snez	a7,a7
80003db8:	0116e6b3          	or	a3,a3,a7
80003dbc:	00e85733          	srl	a4,a6,a4
80003dc0:	40d50633          	sub	a2,a0,a3
80003dc4:	40e78733          	sub	a4,a5,a4
80003dc8:	00c53533          	sltu	a0,a0,a2
80003dcc:	40a707b3          	sub	a5,a4,a0
80003dd0:	00879713          	slli	a4,a5,0x8
80003dd4:	f2075ee3          	bgez	a4,80003d10 <__adddf3+0x328>
80003dd8:	008004b7          	lui	s1,0x800
80003ddc:	fff48493          	addi	s1,s1,-1 # 7fffff <__heap_size+0x7f2fff>
80003de0:	0097f4b3          	and	s1,a5,s1
80003de4:	00060993          	mv	s3,a2
80003de8:	2140006f          	j	80003ffc <__adddf3+0x614>
80003dec:	c8b40ee3          	beq	s0,a1,80003a88 <__adddf3+0xa0>
80003df0:	008006b7          	lui	a3,0x800
80003df4:	00d86833          	or	a6,a6,a3
80003df8:	f95ff06f          	j	80003d8c <__adddf3+0x3a4>
80003dfc:	fe070693          	addi	a3,a4,-32
80003e00:	00d856b3          	srl	a3,a6,a3
80003e04:	00000593          	li	a1,0
80003e08:	01170863          	beq	a4,a7,80003e18 <__adddf3+0x430>
80003e0c:	04000593          	li	a1,64
80003e10:	40e585b3          	sub	a1,a1,a4
80003e14:	00b815b3          	sll	a1,a6,a1
80003e18:	00c5e5b3          	or	a1,a1,a2
80003e1c:	00b035b3          	snez	a1,a1
80003e20:	00b6e6b3          	or	a3,a3,a1
80003e24:	00000713          	li	a4,0
80003e28:	f99ff06f          	j	80003dc0 <__adddf3+0x3d8>
80003e2c:	00c866b3          	or	a3,a6,a2
80003e30:	00d036b3          	snez	a3,a3
80003e34:	ff1ff06f          	j	80003e24 <__adddf3+0x43c>
80003e38:	0e070663          	beqz	a4,80003f24 <__adddf3+0x53c>
80003e3c:	40888333          	sub	t1,a7,s0
80003e40:	04041263          	bnez	s0,80003e84 <__adddf3+0x49c>
80003e44:	00a7e733          	or	a4,a5,a0
80003e48:	02070663          	beqz	a4,80003e74 <__adddf3+0x48c>
80003e4c:	fff30713          	addi	a4,t1,-1
80003e50:	02071063          	bnez	a4,80003e70 <__adddf3+0x488>
80003e54:	40a60533          	sub	a0,a2,a0
80003e58:	00a63733          	sltu	a4,a2,a0
80003e5c:	40f807b3          	sub	a5,a6,a5
80003e60:	00050613          	mv	a2,a0
80003e64:	40e787b3          	sub	a5,a5,a4
80003e68:	00068913          	mv	s2,a3
80003e6c:	f15ff06f          	j	80003d80 <__adddf3+0x398>
80003e70:	02b31263          	bne	t1,a1,80003e94 <__adddf3+0x4ac>
80003e74:	00068913          	mv	s2,a3
80003e78:	00080793          	mv	a5,a6
80003e7c:	00030413          	mv	s0,t1
80003e80:	de5ff06f          	j	80003c64 <__adddf3+0x27c>
80003e84:	28b88463          	beq	a7,a1,8000410c <__adddf3+0x724>
80003e88:	00800737          	lui	a4,0x800
80003e8c:	00e7e7b3          	or	a5,a5,a4
80003e90:	00030713          	mv	a4,t1
80003e94:	03800593          	li	a1,56
80003e98:	08e5c063          	blt	a1,a4,80003f18 <__adddf3+0x530>
80003e9c:	01f00593          	li	a1,31
80003ea0:	02000e13          	li	t3,32
80003ea4:	04e5c263          	blt	a1,a4,80003ee8 <__adddf3+0x500>
80003ea8:	40ee0e33          	sub	t3,t3,a4
80003eac:	01c795b3          	sll	a1,a5,t3
80003eb0:	00e55333          	srl	t1,a0,a4
80003eb4:	01c51e33          	sll	t3,a0,t3
80003eb8:	0065e5b3          	or	a1,a1,t1
80003ebc:	01c03e33          	snez	t3,t3
80003ec0:	01c5e5b3          	or	a1,a1,t3
80003ec4:	00e7d733          	srl	a4,a5,a4
80003ec8:	40b605b3          	sub	a1,a2,a1
80003ecc:	00b637b3          	sltu	a5,a2,a1
80003ed0:	40e80733          	sub	a4,a6,a4
80003ed4:	00058613          	mv	a2,a1
80003ed8:	40f707b3          	sub	a5,a4,a5
80003edc:	00088413          	mv	s0,a7
80003ee0:	00068913          	mv	s2,a3
80003ee4:	eedff06f          	j	80003dd0 <__adddf3+0x3e8>
80003ee8:	fe070593          	addi	a1,a4,-32 # 7fffe0 <__heap_size+0x7f2fe0>
80003eec:	00b7d5b3          	srl	a1,a5,a1
80003ef0:	00000313          	li	t1,0
80003ef4:	01c70863          	beq	a4,t3,80003f04 <__adddf3+0x51c>
80003ef8:	04000313          	li	t1,64
80003efc:	40e30333          	sub	t1,t1,a4
80003f00:	00679333          	sll	t1,a5,t1
80003f04:	00a36333          	or	t1,t1,a0
80003f08:	00603333          	snez	t1,t1
80003f0c:	0065e5b3          	or	a1,a1,t1
80003f10:	00000713          	li	a4,0
80003f14:	fb5ff06f          	j	80003ec8 <__adddf3+0x4e0>
80003f18:	00a7e5b3          	or	a1,a5,a0
80003f1c:	00b035b3          	snez	a1,a1
80003f20:	ff1ff06f          	j	80003f10 <__adddf3+0x528>
80003f24:	00140713          	addi	a4,s0,1
80003f28:	7fe77713          	andi	a4,a4,2046
80003f2c:	0a071063          	bnez	a4,80003fcc <__adddf3+0x5e4>
80003f30:	00a7e8b3          	or	a7,a5,a0
80003f34:	00c86733          	or	a4,a6,a2
80003f38:	06041863          	bnez	s0,80003fa8 <__adddf3+0x5c0>
80003f3c:	00089a63          	bnez	a7,80003f50 <__adddf3+0x568>
80003f40:	00080793          	mv	a5,a6
80003f44:	02071e63          	bnez	a4,80003f80 <__adddf3+0x598>
80003f48:	00000913          	li	s2,0
80003f4c:	1b40006f          	j	80004100 <__adddf3+0x718>
80003f50:	18070c63          	beqz	a4,800040e8 <__adddf3+0x700>
80003f54:	40c505b3          	sub	a1,a0,a2
80003f58:	00b538b3          	sltu	a7,a0,a1
80003f5c:	41078733          	sub	a4,a5,a6
80003f60:	41170733          	sub	a4,a4,a7
80003f64:	00871893          	slli	a7,a4,0x8
80003f68:	0208d663          	bgez	a7,80003f94 <__adddf3+0x5ac>
80003f6c:	40a60533          	sub	a0,a2,a0
80003f70:	00a63733          	sltu	a4,a2,a0
80003f74:	40f807b3          	sub	a5,a6,a5
80003f78:	00050613          	mv	a2,a0
80003f7c:	40e787b3          	sub	a5,a5,a4
80003f80:	00068913          	mv	s2,a3
80003f84:	00f66733          	or	a4,a2,a5
80003f88:	1a070063          	beqz	a4,80004128 <__adddf3+0x740>
80003f8c:	00000413          	li	s0,0
80003f90:	d81ff06f          	j	80003d10 <__adddf3+0x328>
80003f94:	00e5e633          	or	a2,a1,a4
80003f98:	18060263          	beqz	a2,8000411c <__adddf3+0x734>
80003f9c:	00070793          	mv	a5,a4
80003fa0:	00058613          	mv	a2,a1
80003fa4:	fe1ff06f          	j	80003f84 <__adddf3+0x59c>
80003fa8:	00089e63          	bnez	a7,80003fc4 <__adddf3+0x5dc>
80003fac:	00068913          	mv	s2,a3
80003fb0:	14071063          	bnez	a4,800040f0 <__adddf3+0x708>
80003fb4:	00000913          	li	s2,0
80003fb8:	004007b7          	lui	a5,0x400
80003fbc:	00000613          	li	a2,0
80003fc0:	1340006f          	j	800040f4 <__adddf3+0x70c>
80003fc4:	d0070ee3          	beqz	a4,80003ce0 <__adddf3+0x2f8>
80003fc8:	fedff06f          	j	80003fb4 <__adddf3+0x5cc>
80003fcc:	40c50733          	sub	a4,a0,a2
80003fd0:	00e535b3          	sltu	a1,a0,a4
80003fd4:	410784b3          	sub	s1,a5,a6
80003fd8:	40b484b3          	sub	s1,s1,a1
80003fdc:	00849593          	slli	a1,s1,0x8
80003fe0:	00070993          	mv	s3,a4
80003fe4:	0605de63          	bgez	a1,80004060 <__adddf3+0x678>
80003fe8:	40a609b3          	sub	s3,a2,a0
80003fec:	40f804b3          	sub	s1,a6,a5
80003ff0:	01363633          	sltu	a2,a2,s3
80003ff4:	40c484b3          	sub	s1,s1,a2
80003ff8:	00068913          	mv	s2,a3
80003ffc:	06048e63          	beqz	s1,80004078 <__adddf3+0x690>
80004000:	00048513          	mv	a0,s1
80004004:	0dc020ef          	jal	800060e0 <__clzsi2>
80004008:	ff850713          	addi	a4,a0,-8
8000400c:	02000793          	li	a5,32
80004010:	40e787b3          	sub	a5,a5,a4
80004014:	00e494b3          	sll	s1,s1,a4
80004018:	00f9d7b3          	srl	a5,s3,a5
8000401c:	0097e7b3          	or	a5,a5,s1
80004020:	00e99633          	sll	a2,s3,a4
80004024:	0a874463          	blt	a4,s0,800040cc <__adddf3+0x6e4>
80004028:	40870733          	sub	a4,a4,s0
8000402c:	00170513          	addi	a0,a4,1
80004030:	01f00693          	li	a3,31
80004034:	02000593          	li	a1,32
80004038:	06a6c263          	blt	a3,a0,8000409c <__adddf3+0x6b4>
8000403c:	40a585b3          	sub	a1,a1,a0
80004040:	00b79733          	sll	a4,a5,a1
80004044:	00a656b3          	srl	a3,a2,a0
80004048:	00b615b3          	sll	a1,a2,a1
8000404c:	00d76733          	or	a4,a4,a3
80004050:	00b035b3          	snez	a1,a1
80004054:	00b76633          	or	a2,a4,a1
80004058:	00a7d7b3          	srl	a5,a5,a0
8000405c:	f29ff06f          	j	80003f84 <__adddf3+0x59c>
80004060:	00976633          	or	a2,a4,s1
80004064:	f8061ce3          	bnez	a2,80003ffc <__adddf3+0x614>
80004068:	00000913          	li	s2,0
8000406c:	00000793          	li	a5,0
80004070:	00000413          	li	s0,0
80004074:	bf1ff06f          	j	80003c64 <__adddf3+0x27c>
80004078:	00098513          	mv	a0,s3
8000407c:	064020ef          	jal	800060e0 <__clzsi2>
80004080:	01850713          	addi	a4,a0,24
80004084:	01f00793          	li	a5,31
80004088:	f8e7d2e3          	bge	a5,a4,8000400c <__adddf3+0x624>
8000408c:	ff850793          	addi	a5,a0,-8
80004090:	00f997b3          	sll	a5,s3,a5
80004094:	00000613          	li	a2,0
80004098:	f8dff06f          	j	80004024 <__adddf3+0x63c>
8000409c:	fe170713          	addi	a4,a4,-31
800040a0:	00e7d733          	srl	a4,a5,a4
800040a4:	00000693          	li	a3,0
800040a8:	00b50863          	beq	a0,a1,800040b8 <__adddf3+0x6d0>
800040ac:	04000693          	li	a3,64
800040b0:	40a686b3          	sub	a3,a3,a0
800040b4:	00d796b3          	sll	a3,a5,a3
800040b8:	00d666b3          	or	a3,a2,a3
800040bc:	00d036b3          	snez	a3,a3
800040c0:	00d76633          	or	a2,a4,a3
800040c4:	00000793          	li	a5,0
800040c8:	ebdff06f          	j	80003f84 <__adddf3+0x59c>
800040cc:	40e40433          	sub	s0,s0,a4
800040d0:	ff800737          	lui	a4,0xff800
800040d4:	fff70713          	addi	a4,a4,-1 # ff7fffff <__stack_top+0x7f7e9c2f>
800040d8:	00e7f7b3          	and	a5,a5,a4
800040dc:	c35ff06f          	j	80003d10 <__adddf3+0x328>
800040e0:	00080793          	mv	a5,a6
800040e4:	ea1ff06f          	j	80003f84 <__adddf3+0x59c>
800040e8:	00050613          	mv	a2,a0
800040ec:	e99ff06f          	j	80003f84 <__adddf3+0x59c>
800040f0:	00080793          	mv	a5,a6
800040f4:	00058413          	mv	s0,a1
800040f8:	b6dff06f          	j	80003c64 <__adddf3+0x27c>
800040fc:	00070413          	mv	s0,a4
80004100:	00000793          	li	a5,0
80004104:	00000613          	li	a2,0
80004108:	b5dff06f          	j	80003c64 <__adddf3+0x27c>
8000410c:	00068913          	mv	s2,a3
80004110:	00080793          	mv	a5,a6
80004114:	00088413          	mv	s0,a7
80004118:	b4dff06f          	j	80003c64 <__adddf3+0x27c>
8000411c:	00000913          	li	s2,0
80004120:	00000793          	li	a5,0
80004124:	b41ff06f          	j	80003c64 <__adddf3+0x27c>
80004128:	00000793          	li	a5,0
8000412c:	00000613          	li	a2,0
80004130:	f41ff06f          	j	80004070 <__adddf3+0x688>

80004134 <__divdf3>:
80004134:	fd010113          	addi	sp,sp,-48
80004138:	0145d713          	srli	a4,a1,0x14
8000413c:	02812423          	sw	s0,40(sp)
80004140:	03212023          	sw	s2,32(sp)
80004144:	01312e23          	sw	s3,28(sp)
80004148:	01512a23          	sw	s5,20(sp)
8000414c:	01712623          	sw	s7,12(sp)
80004150:	00c59413          	slli	s0,a1,0xc
80004154:	02112623          	sw	ra,44(sp)
80004158:	02912223          	sw	s1,36(sp)
8000415c:	01412c23          	sw	s4,24(sp)
80004160:	01612823          	sw	s6,16(sp)
80004164:	7ff77713          	andi	a4,a4,2047
80004168:	00050993          	mv	s3,a0
8000416c:	00060b93          	mv	s7,a2
80004170:	00068a93          	mv	s5,a3
80004174:	00c45413          	srli	s0,s0,0xc
80004178:	01f5d913          	srli	s2,a1,0x1f
8000417c:	0a070063          	beqz	a4,8000421c <__divdf3+0xe8>
80004180:	7ff00793          	li	a5,2047
80004184:	10f70063          	beq	a4,a5,80004284 <__divdf3+0x150>
80004188:	01d55a13          	srli	s4,a0,0x1d
8000418c:	00341413          	slli	s0,s0,0x3
80004190:	008a6a33          	or	s4,s4,s0
80004194:	008007b7          	lui	a5,0x800
80004198:	00fa6a33          	or	s4,s4,a5
8000419c:	00351493          	slli	s1,a0,0x3
800041a0:	c0170993          	addi	s3,a4,-1023
800041a4:	00000b13          	li	s6,0
800041a8:	014ad793          	srli	a5,s5,0x14
800041ac:	00ca9413          	slli	s0,s5,0xc
800041b0:	7ff7f793          	andi	a5,a5,2047
800041b4:	00c45413          	srli	s0,s0,0xc
800041b8:	01fada93          	srli	s5,s5,0x1f
800041bc:	10078263          	beqz	a5,800042c0 <__divdf3+0x18c>
800041c0:	7ff00693          	li	a3,2047
800041c4:	16d78663          	beq	a5,a3,80004330 <__divdf3+0x1fc>
800041c8:	00341413          	slli	s0,s0,0x3
800041cc:	01dbd693          	srli	a3,s7,0x1d
800041d0:	0086e6b3          	or	a3,a3,s0
800041d4:	00800437          	lui	s0,0x800
800041d8:	0086e433          	or	s0,a3,s0
800041dc:	003b9f13          	slli	t5,s7,0x3
800041e0:	c0178793          	addi	a5,a5,-1023 # 7ffc01 <__heap_size+0x7f2c01>
800041e4:	00000693          	li	a3,0
800041e8:	40f98733          	sub	a4,s3,a5
800041ec:	002b1793          	slli	a5,s6,0x2
800041f0:	00d7e7b3          	or	a5,a5,a3
800041f4:	fff78793          	addi	a5,a5,-1
800041f8:	00e00613          	li	a2,14
800041fc:	01594833          	xor	a6,s2,s5
80004200:	16f66063          	bltu	a2,a5,80004360 <__divdf3+0x22c>
80004204:	80008637          	lui	a2,0x80008
80004208:	00279793          	slli	a5,a5,0x2
8000420c:	24060613          	addi	a2,a2,576 # 80008240 <heap_top+0x20ec>
80004210:	00c787b3          	add	a5,a5,a2
80004214:	0007a783          	lw	a5,0(a5)
80004218:	00078067          	jr	a5
8000421c:	00a46a33          	or	s4,s0,a0
80004220:	060a0e63          	beqz	s4,8000429c <__divdf3+0x168>
80004224:	04040063          	beqz	s0,80004264 <__divdf3+0x130>
80004228:	00040513          	mv	a0,s0
8000422c:	6b5010ef          	jal	800060e0 <__clzsi2>
80004230:	00050793          	mv	a5,a0
80004234:	ff550713          	addi	a4,a0,-11
80004238:	01d00a13          	li	s4,29
8000423c:	ff878693          	addi	a3,a5,-8
80004240:	40ea0a33          	sub	s4,s4,a4
80004244:	00d41433          	sll	s0,s0,a3
80004248:	0149da33          	srl	s4,s3,s4
8000424c:	008a6a33          	or	s4,s4,s0
80004250:	00d99433          	sll	s0,s3,a3
80004254:	c0d00713          	li	a4,-1011
80004258:	40f709b3          	sub	s3,a4,a5
8000425c:	00040493          	mv	s1,s0
80004260:	f45ff06f          	j	800041a4 <__divdf3+0x70>
80004264:	67d010ef          	jal	800060e0 <__clzsi2>
80004268:	01550713          	addi	a4,a0,21
8000426c:	01c00693          	li	a3,28
80004270:	02050793          	addi	a5,a0,32
80004274:	fce6d2e3          	bge	a3,a4,80004238 <__divdf3+0x104>
80004278:	ff850513          	addi	a0,a0,-8
8000427c:	00a99a33          	sll	s4,s3,a0
80004280:	fd5ff06f          	j	80004254 <__divdf3+0x120>
80004284:	00a46a33          	or	s4,s0,a0
80004288:	020a1263          	bnez	s4,800042ac <__divdf3+0x178>
8000428c:	00000493          	li	s1,0
80004290:	00070993          	mv	s3,a4
80004294:	00200b13          	li	s6,2
80004298:	f11ff06f          	j	800041a8 <__divdf3+0x74>
8000429c:	00000493          	li	s1,0
800042a0:	00000993          	li	s3,0
800042a4:	00100b13          	li	s6,1
800042a8:	f01ff06f          	j	800041a8 <__divdf3+0x74>
800042ac:	00050493          	mv	s1,a0
800042b0:	00040a13          	mv	s4,s0
800042b4:	00070993          	mv	s3,a4
800042b8:	00300b13          	li	s6,3
800042bc:	eedff06f          	j	800041a8 <__divdf3+0x74>
800042c0:	01746f33          	or	t5,s0,s7
800042c4:	080f0063          	beqz	t5,80004344 <__divdf3+0x210>
800042c8:	04040263          	beqz	s0,8000430c <__divdf3+0x1d8>
800042cc:	00040513          	mv	a0,s0
800042d0:	611010ef          	jal	800060e0 <__clzsi2>
800042d4:	00050693          	mv	a3,a0
800042d8:	ff550793          	addi	a5,a0,-11
800042dc:	01d00593          	li	a1,29
800042e0:	ff868613          	addi	a2,a3,-8 # 7ffff8 <__heap_size+0x7f2ff8>
800042e4:	40f585b3          	sub	a1,a1,a5
800042e8:	00c41433          	sll	s0,s0,a2
800042ec:	00bbd5b3          	srl	a1,s7,a1
800042f0:	0085e5b3          	or	a1,a1,s0
800042f4:	00cb9433          	sll	s0,s7,a2
800042f8:	c0d00793          	li	a5,-1011
800042fc:	00040f13          	mv	t5,s0
80004300:	40d787b3          	sub	a5,a5,a3
80004304:	00058413          	mv	s0,a1
80004308:	eddff06f          	j	800041e4 <__divdf3+0xb0>
8000430c:	000b8513          	mv	a0,s7
80004310:	5d1010ef          	jal	800060e0 <__clzsi2>
80004314:	01550793          	addi	a5,a0,21
80004318:	01c00613          	li	a2,28
8000431c:	02050693          	addi	a3,a0,32
80004320:	faf65ee3          	bge	a2,a5,800042dc <__divdf3+0x1a8>
80004324:	ff850593          	addi	a1,a0,-8
80004328:	00bb95b3          	sll	a1,s7,a1
8000432c:	fcdff06f          	j	800042f8 <__divdf3+0x1c4>
80004330:	01746f33          	or	t5,s0,s7
80004334:	020f1063          	bnez	t5,80004354 <__divdf3+0x220>
80004338:	00000413          	li	s0,0
8000433c:	00200693          	li	a3,2
80004340:	ea9ff06f          	j	800041e8 <__divdf3+0xb4>
80004344:	00000413          	li	s0,0
80004348:	00000793          	li	a5,0
8000434c:	00100693          	li	a3,1
80004350:	e99ff06f          	j	800041e8 <__divdf3+0xb4>
80004354:	000b8f13          	mv	t5,s7
80004358:	00300693          	li	a3,3
8000435c:	e8dff06f          	j	800041e8 <__divdf3+0xb4>
80004360:	01446663          	bltu	s0,s4,8000436c <__divdf3+0x238>
80004364:	308a1863          	bne	s4,s0,80004674 <__divdf3+0x540>
80004368:	31e4e663          	bltu	s1,t5,80004674 <__divdf3+0x540>
8000436c:	01fa1693          	slli	a3,s4,0x1f
80004370:	0014d793          	srli	a5,s1,0x1
80004374:	01f49613          	slli	a2,s1,0x1f
80004378:	001a5a13          	srli	s4,s4,0x1
8000437c:	00f6e4b3          	or	s1,a3,a5
80004380:	00841893          	slli	a7,s0,0x8
80004384:	018f5693          	srli	a3,t5,0x18
80004388:	0116e6b3          	or	a3,a3,a7
8000438c:	0108d893          	srli	a7,a7,0x10
80004390:	031a55b3          	divu	a1,s4,a7
80004394:	01069e93          	slli	t4,a3,0x10
80004398:	010ede93          	srli	t4,t4,0x10
8000439c:	0104d793          	srli	a5,s1,0x10
800043a0:	008f1513          	slli	a0,t5,0x8
800043a4:	031a7a33          	remu	s4,s4,a7
800043a8:	02be8333          	mul	t1,t4,a1
800043ac:	010a1a13          	slli	s4,s4,0x10
800043b0:	0147e7b3          	or	a5,a5,s4
800043b4:	0067fa63          	bgeu	a5,t1,800043c8 <__divdf3+0x294>
800043b8:	00f687b3          	add	a5,a3,a5
800043bc:	00d7e463          	bltu	a5,a3,800043c4 <__divdf3+0x290>
800043c0:	2c67e063          	bltu	a5,t1,80004680 <__divdf3+0x54c>
800043c4:	fff58593          	addi	a1,a1,-1
800043c8:	406787b3          	sub	a5,a5,t1
800043cc:	0317d333          	divu	t1,a5,a7
800043d0:	01049493          	slli	s1,s1,0x10
800043d4:	0104d493          	srli	s1,s1,0x10
800043d8:	0317f7b3          	remu	a5,a5,a7
800043dc:	026e8e33          	mul	t3,t4,t1
800043e0:	01079793          	slli	a5,a5,0x10
800043e4:	00f4e4b3          	or	s1,s1,a5
800043e8:	01c4fa63          	bgeu	s1,t3,800043fc <__divdf3+0x2c8>
800043ec:	009684b3          	add	s1,a3,s1
800043f0:	01c4f463          	bgeu	s1,t3,800043f8 <__divdf3+0x2c4>
800043f4:	28d4fc63          	bgeu	s1,a3,8000468c <__divdf3+0x558>
800043f8:	fff30313          	addi	t1,t1,-1
800043fc:	01059593          	slli	a1,a1,0x10
80004400:	0065e5b3          	or	a1,a1,t1
80004404:	41c484b3          	sub	s1,s1,t3
80004408:	01059793          	slli	a5,a1,0x10
8000440c:	01051e13          	slli	t3,a0,0x10
80004410:	0105df93          	srli	t6,a1,0x10
80004414:	01055313          	srli	t1,a0,0x10
80004418:	0107d793          	srli	a5,a5,0x10
8000441c:	010e5e13          	srli	t3,t3,0x10
80004420:	03c782b3          	mul	t0,a5,t3
80004424:	03cf83b3          	mul	t2,t6,t3
80004428:	02f307b3          	mul	a5,t1,a5
8000442c:	00778f33          	add	t5,a5,t2
80004430:	0102d793          	srli	a5,t0,0x10
80004434:	01e787b3          	add	a5,a5,t5
80004438:	026f8fb3          	mul	t6,t6,t1
8000443c:	0077f663          	bgeu	a5,t2,80004448 <__divdf3+0x314>
80004440:	00010f37          	lui	t5,0x10
80004444:	01ef8fb3          	add	t6,t6,t5
80004448:	0107df13          	srli	t5,a5,0x10
8000444c:	01029293          	slli	t0,t0,0x10
80004450:	01079793          	slli	a5,a5,0x10
80004454:	0102d293          	srli	t0,t0,0x10
80004458:	01ff0f33          	add	t5,t5,t6
8000445c:	005787b3          	add	a5,a5,t0
80004460:	01e4e663          	bltu	s1,t5,8000446c <__divdf3+0x338>
80004464:	23e49a63          	bne	s1,t5,80004698 <__divdf3+0x564>
80004468:	22f67863          	bgeu	a2,a5,80004698 <__divdf3+0x564>
8000446c:	00a60fb3          	add	t6,a2,a0
80004470:	00cfb2b3          	sltu	t0,t6,a2
80004474:	00d283b3          	add	t2,t0,a3
80004478:	007484b3          	add	s1,s1,t2
8000447c:	fff58413          	addi	s0,a1,-1
80004480:	000f8613          	mv	a2,t6
80004484:	0096e663          	bltu	a3,s1,80004490 <__divdf3+0x35c>
80004488:	02029463          	bnez	t0,800044b0 <__divdf3+0x37c>
8000448c:	02969263          	bne	a3,s1,800044b0 <__divdf3+0x37c>
80004490:	01e4e663          	bltu	s1,t5,8000449c <__divdf3+0x368>
80004494:	009f1e63          	bne	t5,s1,800044b0 <__divdf3+0x37c>
80004498:	00fffc63          	bgeu	t6,a5,800044b0 <__divdf3+0x37c>
8000449c:	01f50633          	add	a2,a0,t6
800044a0:	ffe58413          	addi	s0,a1,-2
800044a4:	00a635b3          	sltu	a1,a2,a0
800044a8:	00d585b3          	add	a1,a1,a3
800044ac:	00b484b3          	add	s1,s1,a1
800044b0:	40f607b3          	sub	a5,a2,a5
800044b4:	41e484b3          	sub	s1,s1,t5
800044b8:	00f63633          	sltu	a2,a2,a5
800044bc:	40c484b3          	sub	s1,s1,a2
800044c0:	fff00f13          	li	t5,-1
800044c4:	10968663          	beq	a3,s1,800045d0 <__divdf3+0x49c>
800044c8:	0314d5b3          	divu	a1,s1,a7
800044cc:	0107d613          	srli	a2,a5,0x10
800044d0:	0314f4b3          	remu	s1,s1,a7
800044d4:	02be8f33          	mul	t5,t4,a1
800044d8:	01049493          	slli	s1,s1,0x10
800044dc:	00966633          	or	a2,a2,s1
800044e0:	01e67a63          	bgeu	a2,t5,800044f4 <__divdf3+0x3c0>
800044e4:	00c68633          	add	a2,a3,a2
800044e8:	00d66463          	bltu	a2,a3,800044f0 <__divdf3+0x3bc>
800044ec:	1be66a63          	bltu	a2,t5,800046a0 <__divdf3+0x56c>
800044f0:	fff58593          	addi	a1,a1,-1
800044f4:	41e60633          	sub	a2,a2,t5
800044f8:	03165f33          	divu	t5,a2,a7
800044fc:	01079793          	slli	a5,a5,0x10
80004500:	0107d793          	srli	a5,a5,0x10
80004504:	03167633          	remu	a2,a2,a7
80004508:	03ee8eb3          	mul	t4,t4,t5
8000450c:	01061613          	slli	a2,a2,0x10
80004510:	00c7e7b3          	or	a5,a5,a2
80004514:	01d7fa63          	bgeu	a5,t4,80004528 <__divdf3+0x3f4>
80004518:	00f687b3          	add	a5,a3,a5
8000451c:	01d7f463          	bgeu	a5,t4,80004524 <__divdf3+0x3f0>
80004520:	18d7f663          	bgeu	a5,a3,800046ac <__divdf3+0x578>
80004524:	ffff0f13          	addi	t5,t5,-1 # ffff <__heap_size+0x2fff>
80004528:	01059613          	slli	a2,a1,0x10
8000452c:	01e66633          	or	a2,a2,t5
80004530:	01061593          	slli	a1,a2,0x10
80004534:	0105d593          	srli	a1,a1,0x10
80004538:	41d787b3          	sub	a5,a5,t4
8000453c:	01065e93          	srli	t4,a2,0x10
80004540:	02be0f33          	mul	t5,t3,a1
80004544:	03ce8e33          	mul	t3,t4,t3
80004548:	03d30eb3          	mul	t4,t1,t4
8000454c:	02b30333          	mul	t1,t1,a1
80004550:	010f5593          	srli	a1,t5,0x10
80004554:	01c30333          	add	t1,t1,t3
80004558:	006585b3          	add	a1,a1,t1
8000455c:	01c5f663          	bgeu	a1,t3,80004568 <__divdf3+0x434>
80004560:	000108b7          	lui	a7,0x10
80004564:	011e8eb3          	add	t4,t4,a7
80004568:	0105d893          	srli	a7,a1,0x10
8000456c:	010f1f13          	slli	t5,t5,0x10
80004570:	01059593          	slli	a1,a1,0x10
80004574:	010f5f13          	srli	t5,t5,0x10
80004578:	01d888b3          	add	a7,a7,t4
8000457c:	01e585b3          	add	a1,a1,t5
80004580:	0117e663          	bltu	a5,a7,8000458c <__divdf3+0x458>
80004584:	05179463          	bne	a5,a7,800045cc <__divdf3+0x498>
80004588:	12058863          	beqz	a1,800046b8 <__divdf3+0x584>
8000458c:	00f68333          	add	t1,a3,a5
80004590:	fff60f13          	addi	t5,a2,-1
80004594:	00030793          	mv	a5,t1
80004598:	02d36463          	bltu	t1,a3,800045c0 <__divdf3+0x48c>
8000459c:	01136663          	bltu	t1,a7,800045a8 <__divdf3+0x474>
800045a0:	03131463          	bne	t1,a7,800045c8 <__divdf3+0x494>
800045a4:	00b57e63          	bgeu	a0,a1,800045c0 <__divdf3+0x48c>
800045a8:	ffe60f13          	addi	t5,a2,-2
800045ac:	00151613          	slli	a2,a0,0x1
800045b0:	00a637b3          	sltu	a5,a2,a0
800045b4:	00d787b3          	add	a5,a5,a3
800045b8:	00f307b3          	add	a5,t1,a5
800045bc:	00060513          	mv	a0,a2
800045c0:	00b51463          	bne	a0,a1,800045c8 <__divdf3+0x494>
800045c4:	01178663          	beq	a5,a7,800045d0 <__divdf3+0x49c>
800045c8:	000f0613          	mv	a2,t5
800045cc:	00166f13          	ori	t5,a2,1
800045d0:	3ff70793          	addi	a5,a4,1023
800045d4:	12f05663          	blez	a5,80004700 <__divdf3+0x5cc>
800045d8:	007f7693          	andi	a3,t5,7
800045dc:	02068063          	beqz	a3,800045fc <__divdf3+0x4c8>
800045e0:	00ff7693          	andi	a3,t5,15
800045e4:	00400613          	li	a2,4
800045e8:	00c68a63          	beq	a3,a2,800045fc <__divdf3+0x4c8>
800045ec:	00cf06b3          	add	a3,t5,a2
800045f0:	01e6b633          	sltu	a2,a3,t5
800045f4:	00c40433          	add	s0,s0,a2
800045f8:	00068f13          	mv	t5,a3
800045fc:	00741693          	slli	a3,s0,0x7
80004600:	0006da63          	bgez	a3,80004614 <__divdf3+0x4e0>
80004604:	ff0007b7          	lui	a5,0xff000
80004608:	fff78793          	addi	a5,a5,-1 # feffffff <__stack_top+0x7efe9c2f>
8000460c:	00f47433          	and	s0,s0,a5
80004610:	40070793          	addi	a5,a4,1024
80004614:	7fe00713          	li	a4,2046
80004618:	1af74a63          	blt	a4,a5,800047cc <__divdf3+0x698>
8000461c:	01d41713          	slli	a4,s0,0x1d
80004620:	003f5f13          	srli	t5,t5,0x3
80004624:	01e76733          	or	a4,a4,t5
80004628:	00345413          	srli	s0,s0,0x3
8000462c:	00c41413          	slli	s0,s0,0xc
80004630:	00c45413          	srli	s0,s0,0xc
80004634:	01479793          	slli	a5,a5,0x14
80004638:	02c12083          	lw	ra,44(sp)
8000463c:	0087e7b3          	or	a5,a5,s0
80004640:	02812403          	lw	s0,40(sp)
80004644:	01f81813          	slli	a6,a6,0x1f
80004648:	02412483          	lw	s1,36(sp)
8000464c:	02012903          	lw	s2,32(sp)
80004650:	01c12983          	lw	s3,28(sp)
80004654:	01812a03          	lw	s4,24(sp)
80004658:	01412a83          	lw	s5,20(sp)
8000465c:	01012b03          	lw	s6,16(sp)
80004660:	00c12b83          	lw	s7,12(sp)
80004664:	00070513          	mv	a0,a4
80004668:	0107e5b3          	or	a1,a5,a6
8000466c:	03010113          	addi	sp,sp,48
80004670:	00008067          	ret
80004674:	fff70713          	addi	a4,a4,-1
80004678:	00000613          	li	a2,0
8000467c:	d05ff06f          	j	80004380 <__divdf3+0x24c>
80004680:	ffe58593          	addi	a1,a1,-2
80004684:	00d787b3          	add	a5,a5,a3
80004688:	d41ff06f          	j	800043c8 <__divdf3+0x294>
8000468c:	ffe30313          	addi	t1,t1,-2
80004690:	00d484b3          	add	s1,s1,a3
80004694:	d69ff06f          	j	800043fc <__divdf3+0x2c8>
80004698:	00058413          	mv	s0,a1
8000469c:	e15ff06f          	j	800044b0 <__divdf3+0x37c>
800046a0:	ffe58593          	addi	a1,a1,-2
800046a4:	00d60633          	add	a2,a2,a3
800046a8:	e4dff06f          	j	800044f4 <__divdf3+0x3c0>
800046ac:	ffef0f13          	addi	t5,t5,-2
800046b0:	00d787b3          	add	a5,a5,a3
800046b4:	e75ff06f          	j	80004528 <__divdf3+0x3f4>
800046b8:	00000513          	li	a0,0
800046bc:	00060f13          	mv	t5,a2
800046c0:	f01ff06f          	j	800045c0 <__divdf3+0x48c>
800046c4:	000a8813          	mv	a6,s5
800046c8:	00068b13          	mv	s6,a3
800046cc:	00200793          	li	a5,2
800046d0:	0efb0e63          	beq	s6,a5,800047cc <__divdf3+0x698>
800046d4:	00300793          	li	a5,3
800046d8:	0efb0063          	beq	s6,a5,800047b8 <__divdf3+0x684>
800046dc:	00100793          	li	a5,1
800046e0:	eefb18e3          	bne	s6,a5,800045d0 <__divdf3+0x49c>
800046e4:	00000413          	li	s0,0
800046e8:	00000713          	li	a4,0
800046ec:	08c0006f          	j	80004778 <__divdf3+0x644>
800046f0:	00090813          	mv	a6,s2
800046f4:	000a0413          	mv	s0,s4
800046f8:	00048f13          	mv	t5,s1
800046fc:	fd1ff06f          	j	800046cc <__divdf3+0x598>
80004700:	08078063          	beqz	a5,80004780 <__divdf3+0x64c>
80004704:	fc900693          	li	a3,-55
80004708:	fcd7cee3          	blt	a5,a3,800046e4 <__divdf3+0x5b0>
8000470c:	fe200693          	li	a3,-30
80004710:	06d7cc63          	blt	a5,a3,80004788 <__divdf3+0x654>
80004714:	00100693          	li	a3,1
80004718:	40f686b3          	sub	a3,a3,a5
8000471c:	41e70713          	addi	a4,a4,1054
80004720:	00df57b3          	srl	a5,t5,a3
80004724:	00ef1f33          	sll	t5,t5,a4
80004728:	01e03f33          	snez	t5,t5
8000472c:	00e41733          	sll	a4,s0,a4
80004730:	00ef6f33          	or	t5,t5,a4
80004734:	01e7e7b3          	or	a5,a5,t5
80004738:	00d45433          	srl	s0,s0,a3
8000473c:	0077f713          	andi	a4,a5,7
80004740:	02070063          	beqz	a4,80004760 <__divdf3+0x62c>
80004744:	00f7f713          	andi	a4,a5,15
80004748:	00400693          	li	a3,4
8000474c:	00d70a63          	beq	a4,a3,80004760 <__divdf3+0x62c>
80004750:	00d78733          	add	a4,a5,a3
80004754:	00f736b3          	sltu	a3,a4,a5
80004758:	00d40433          	add	s0,s0,a3
8000475c:	00070793          	mv	a5,a4
80004760:	00841713          	slli	a4,s0,0x8
80004764:	06074c63          	bltz	a4,800047dc <__divdf3+0x6a8>
80004768:	01d41713          	slli	a4,s0,0x1d
8000476c:	0037d793          	srli	a5,a5,0x3
80004770:	00f76733          	or	a4,a4,a5
80004774:	00345413          	srli	s0,s0,0x3
80004778:	00000793          	li	a5,0
8000477c:	eb1ff06f          	j	8000462c <__divdf3+0x4f8>
80004780:	00100693          	li	a3,1
80004784:	f99ff06f          	j	8000471c <__divdf3+0x5e8>
80004788:	fe100593          	li	a1,-31
8000478c:	40f586b3          	sub	a3,a1,a5
80004790:	00d456b3          	srl	a3,s0,a3
80004794:	00000613          	li	a2,0
80004798:	00b78663          	beq	a5,a1,800047a4 <__divdf3+0x670>
8000479c:	43e70713          	addi	a4,a4,1086
800047a0:	00e41633          	sll	a2,s0,a4
800047a4:	01e66633          	or	a2,a2,t5
800047a8:	00c03633          	snez	a2,a2
800047ac:	00c6e7b3          	or	a5,a3,a2
800047b0:	00000413          	li	s0,0
800047b4:	f89ff06f          	j	8000473c <__divdf3+0x608>
800047b8:	00080437          	lui	s0,0x80
800047bc:	00000713          	li	a4,0
800047c0:	7ff00793          	li	a5,2047
800047c4:	00000813          	li	a6,0
800047c8:	e65ff06f          	j	8000462c <__divdf3+0x4f8>
800047cc:	00000413          	li	s0,0
800047d0:	00000713          	li	a4,0
800047d4:	7ff00793          	li	a5,2047
800047d8:	e55ff06f          	j	8000462c <__divdf3+0x4f8>
800047dc:	00000413          	li	s0,0
800047e0:	00000713          	li	a4,0
800047e4:	00100793          	li	a5,1
800047e8:	e45ff06f          	j	8000462c <__divdf3+0x4f8>

800047ec <__ledf2>:
800047ec:	0145d893          	srli	a7,a1,0x14
800047f0:	00100737          	lui	a4,0x100
800047f4:	fff70713          	addi	a4,a4,-1 # fffff <__heap_size+0xf2fff>
800047f8:	0146d813          	srli	a6,a3,0x14
800047fc:	7ff8f893          	andi	a7,a7,2047
80004800:	7ff00793          	li	a5,2047
80004804:	00b77333          	and	t1,a4,a1
80004808:	7ff87813          	andi	a6,a6,2047
8000480c:	00d77733          	and	a4,a4,a3
80004810:	01f5d593          	srli	a1,a1,0x1f
80004814:	01f6d693          	srli	a3,a3,0x1f
80004818:	02f88063          	beq	a7,a5,80004838 <__ledf2+0x4c>
8000481c:	7ff00e13          	li	t3,2047
80004820:	00080793          	mv	a5,a6
80004824:	03c81463          	bne	a6,t3,8000484c <__ledf2+0x60>
80004828:	00c76e33          	or	t3,a4,a2
8000482c:	020e0063          	beqz	t3,8000484c <__ledf2+0x60>
80004830:	00200793          	li	a5,2
80004834:	0100006f          	j	80004844 <__ledf2+0x58>
80004838:	00a36e33          	or	t3,t1,a0
8000483c:	00200793          	li	a5,2
80004840:	fc0e0ee3          	beqz	t3,8000481c <__ledf2+0x30>
80004844:	00078513          	mv	a0,a5
80004848:	00008067          	ret
8000484c:	00000e13          	li	t3,0
80004850:	00089663          	bnez	a7,8000485c <__ledf2+0x70>
80004854:	00a36e33          	or	t3,t1,a0
80004858:	001e3e13          	seqz	t3,t3
8000485c:	04081863          	bnez	a6,800048ac <__ledf2+0xc0>
80004860:	00c76eb3          	or	t4,a4,a2
80004864:	000e0a63          	beqz	t3,80004878 <__ledf2+0x8c>
80004868:	fc0e8ee3          	beqz	t4,80004844 <__ledf2+0x58>
8000486c:	00169793          	slli	a5,a3,0x1
80004870:	fff78793          	addi	a5,a5,-1
80004874:	fd1ff06f          	j	80004844 <__ledf2+0x58>
80004878:	020e9c63          	bnez	t4,800048b0 <__ledf2+0xc4>
8000487c:	40b005b3          	neg	a1,a1
80004880:	0015e793          	ori	a5,a1,1
80004884:	fc1ff06f          	j	80004844 <__ledf2+0x58>
80004888:	ff08c2e3          	blt	a7,a6,8000486c <__ledf2+0x80>
8000488c:	fe6768e3          	bltu	a4,t1,8000487c <__ledf2+0x90>
80004890:	00a67463          	bgeu	a2,a0,80004898 <__ledf2+0xac>
80004894:	fee304e3          	beq	t1,a4,8000487c <__ledf2+0x90>
80004898:	00c56663          	bltu	a0,a2,800048a4 <__ledf2+0xb8>
8000489c:	00000793          	li	a5,0
800048a0:	fae372e3          	bgeu	t1,a4,80004844 <__ledf2+0x58>
800048a4:	00159793          	slli	a5,a1,0x1
800048a8:	fc9ff06f          	j	80004870 <__ledf2+0x84>
800048ac:	fc0e10e3          	bnez	t3,8000486c <__ledf2+0x80>
800048b0:	fcb696e3          	bne	a3,a1,8000487c <__ledf2+0x90>
800048b4:	fd185ae3          	bge	a6,a7,80004888 <__ledf2+0x9c>
800048b8:	40d006b3          	neg	a3,a3
800048bc:	0016e793          	ori	a5,a3,1
800048c0:	f85ff06f          	j	80004844 <__ledf2+0x58>

800048c4 <__muldf3>:
800048c4:	fd010113          	addi	sp,sp,-48
800048c8:	01312e23          	sw	s3,28(sp)
800048cc:	0145d993          	srli	s3,a1,0x14
800048d0:	02812423          	sw	s0,40(sp)
800048d4:	02912223          	sw	s1,36(sp)
800048d8:	01412c23          	sw	s4,24(sp)
800048dc:	01512a23          	sw	s5,20(sp)
800048e0:	01712623          	sw	s7,12(sp)
800048e4:	00c59493          	slli	s1,a1,0xc
800048e8:	02112623          	sw	ra,44(sp)
800048ec:	03212023          	sw	s2,32(sp)
800048f0:	01612823          	sw	s6,16(sp)
800048f4:	7ff9f993          	andi	s3,s3,2047
800048f8:	00050413          	mv	s0,a0
800048fc:	00060b93          	mv	s7,a2
80004900:	00068a13          	mv	s4,a3
80004904:	00c4d493          	srli	s1,s1,0xc
80004908:	01f5da93          	srli	s5,a1,0x1f
8000490c:	0c098263          	beqz	s3,800049d0 <__muldf3+0x10c>
80004910:	7ff00793          	li	a5,2047
80004914:	12f98463          	beq	s3,a5,80004a3c <__muldf3+0x178>
80004918:	00349493          	slli	s1,s1,0x3
8000491c:	01d55793          	srli	a5,a0,0x1d
80004920:	0097e7b3          	or	a5,a5,s1
80004924:	008004b7          	lui	s1,0x800
80004928:	0097e4b3          	or	s1,a5,s1
8000492c:	00351913          	slli	s2,a0,0x3
80004930:	c0198993          	addi	s3,s3,-1023
80004934:	00000b13          	li	s6,0
80004938:	014a5713          	srli	a4,s4,0x14
8000493c:	00ca1413          	slli	s0,s4,0xc
80004940:	7ff77713          	andi	a4,a4,2047
80004944:	00c45413          	srli	s0,s0,0xc
80004948:	01fa5a13          	srli	s4,s4,0x1f
8000494c:	12070063          	beqz	a4,80004a6c <__muldf3+0x1a8>
80004950:	7ff00793          	li	a5,2047
80004954:	18f70463          	beq	a4,a5,80004adc <__muldf3+0x218>
80004958:	00341413          	slli	s0,s0,0x3
8000495c:	01dbd793          	srli	a5,s7,0x1d
80004960:	0087e7b3          	or	a5,a5,s0
80004964:	00800437          	lui	s0,0x800
80004968:	0087e433          	or	s0,a5,s0
8000496c:	c0170713          	addi	a4,a4,-1023
80004970:	003b9793          	slli	a5,s7,0x3
80004974:	00000813          	li	a6,0
80004978:	00e989b3          	add	s3,s3,a4
8000497c:	002b1713          	slli	a4,s6,0x2
80004980:	01076733          	or	a4,a4,a6
80004984:	00a00693          	li	a3,10
80004988:	00198513          	addi	a0,s3,1
8000498c:	1ae6c263          	blt	a3,a4,80004b30 <__muldf3+0x26c>
80004990:	00200613          	li	a2,2
80004994:	014ac5b3          	xor	a1,s5,s4
80004998:	00100693          	li	a3,1
8000499c:	16e64863          	blt	a2,a4,80004b0c <__muldf3+0x248>
800049a0:	fff70713          	addi	a4,a4,-1
800049a4:	1ae6e663          	bltu	a3,a4,80004b50 <__muldf3+0x28c>
800049a8:	00080b13          	mv	s6,a6
800049ac:	00200713          	li	a4,2
800049b0:	4ceb0e63          	beq	s6,a4,80004e8c <__muldf3+0x5c8>
800049b4:	00300713          	li	a4,3
800049b8:	4ceb0463          	beq	s6,a4,80004e80 <__muldf3+0x5bc>
800049bc:	00100713          	li	a4,1
800049c0:	34eb1463          	bne	s6,a4,80004d08 <__muldf3+0x444>
800049c4:	00000413          	li	s0,0
800049c8:	00000613          	li	a2,0
800049cc:	4640006f          	j	80004e30 <__muldf3+0x56c>
800049d0:	00a4e933          	or	s2,s1,a0
800049d4:	06090e63          	beqz	s2,80004a50 <__muldf3+0x18c>
800049d8:	04048263          	beqz	s1,80004a1c <__muldf3+0x158>
800049dc:	00048513          	mv	a0,s1
800049e0:	700010ef          	jal	800060e0 <__clzsi2>
800049e4:	00050713          	mv	a4,a0
800049e8:	ff550693          	addi	a3,a0,-11
800049ec:	01d00793          	li	a5,29
800049f0:	ff870613          	addi	a2,a4,-8
800049f4:	40d787b3          	sub	a5,a5,a3
800049f8:	00c494b3          	sll	s1,s1,a2
800049fc:	00f457b3          	srl	a5,s0,a5
80004a00:	0097e7b3          	or	a5,a5,s1
80004a04:	00c414b3          	sll	s1,s0,a2
80004a08:	c0d00993          	li	s3,-1011
80004a0c:	00048913          	mv	s2,s1
80004a10:	40e989b3          	sub	s3,s3,a4
80004a14:	00078493          	mv	s1,a5
80004a18:	f1dff06f          	j	80004934 <__muldf3+0x70>
80004a1c:	6c4010ef          	jal	800060e0 <__clzsi2>
80004a20:	01550693          	addi	a3,a0,21
80004a24:	01c00793          	li	a5,28
80004a28:	02050713          	addi	a4,a0,32
80004a2c:	fcd7d0e3          	bge	a5,a3,800049ec <__muldf3+0x128>
80004a30:	ff850793          	addi	a5,a0,-8
80004a34:	00f417b3          	sll	a5,s0,a5
80004a38:	fd1ff06f          	j	80004a08 <__muldf3+0x144>
80004a3c:	00a4e933          	or	s2,s1,a0
80004a40:	02091063          	bnez	s2,80004a60 <__muldf3+0x19c>
80004a44:	00000493          	li	s1,0
80004a48:	00200b13          	li	s6,2
80004a4c:	eedff06f          	j	80004938 <__muldf3+0x74>
80004a50:	00000493          	li	s1,0
80004a54:	00000993          	li	s3,0
80004a58:	00100b13          	li	s6,1
80004a5c:	eddff06f          	j	80004938 <__muldf3+0x74>
80004a60:	00050913          	mv	s2,a0
80004a64:	00300b13          	li	s6,3
80004a68:	ed1ff06f          	j	80004938 <__muldf3+0x74>
80004a6c:	017467b3          	or	a5,s0,s7
80004a70:	08078063          	beqz	a5,80004af0 <__muldf3+0x22c>
80004a74:	04040263          	beqz	s0,80004ab8 <__muldf3+0x1f4>
80004a78:	00040513          	mv	a0,s0
80004a7c:	664010ef          	jal	800060e0 <__clzsi2>
80004a80:	00050793          	mv	a5,a0
80004a84:	ff550713          	addi	a4,a0,-11
80004a88:	01d00693          	li	a3,29
80004a8c:	ff878613          	addi	a2,a5,-8
80004a90:	40e686b3          	sub	a3,a3,a4
80004a94:	00c41433          	sll	s0,s0,a2
80004a98:	00dbd6b3          	srl	a3,s7,a3
80004a9c:	0086e6b3          	or	a3,a3,s0
80004aa0:	00cb9433          	sll	s0,s7,a2
80004aa4:	c0d00713          	li	a4,-1011
80004aa8:	40f70733          	sub	a4,a4,a5
80004aac:	00040793          	mv	a5,s0
80004ab0:	00068413          	mv	s0,a3
80004ab4:	ec1ff06f          	j	80004974 <__muldf3+0xb0>
80004ab8:	000b8513          	mv	a0,s7
80004abc:	624010ef          	jal	800060e0 <__clzsi2>
80004ac0:	01550713          	addi	a4,a0,21
80004ac4:	01c00693          	li	a3,28
80004ac8:	02050793          	addi	a5,a0,32
80004acc:	fae6dee3          	bge	a3,a4,80004a88 <__muldf3+0x1c4>
80004ad0:	ff850693          	addi	a3,a0,-8
80004ad4:	00db96b3          	sll	a3,s7,a3
80004ad8:	fcdff06f          	j	80004aa4 <__muldf3+0x1e0>
80004adc:	017467b3          	or	a5,s0,s7
80004ae0:	02079063          	bnez	a5,80004b00 <__muldf3+0x23c>
80004ae4:	00000413          	li	s0,0
80004ae8:	00200813          	li	a6,2
80004aec:	e8dff06f          	j	80004978 <__muldf3+0xb4>
80004af0:	00000413          	li	s0,0
80004af4:	00000713          	li	a4,0
80004af8:	00100813          	li	a6,1
80004afc:	e7dff06f          	j	80004978 <__muldf3+0xb4>
80004b00:	000b8793          	mv	a5,s7
80004b04:	00300813          	li	a6,3
80004b08:	e71ff06f          	j	80004978 <__muldf3+0xb4>
80004b0c:	00e69733          	sll	a4,a3,a4
80004b10:	53077613          	andi	a2,a4,1328
80004b14:	02061863          	bnez	a2,80004b44 <__muldf3+0x280>
80004b18:	24077693          	andi	a3,a4,576
80004b1c:	34069a63          	bnez	a3,80004e70 <__muldf3+0x5ac>
80004b20:	08877713          	andi	a4,a4,136
80004b24:	02070663          	beqz	a4,80004b50 <__muldf3+0x28c>
80004b28:	000a0593          	mv	a1,s4
80004b2c:	e7dff06f          	j	800049a8 <__muldf3+0xe4>
80004b30:	00f00693          	li	a3,15
80004b34:	34d70663          	beq	a4,a3,80004e80 <__muldf3+0x5bc>
80004b38:	00b00693          	li	a3,11
80004b3c:	000a8593          	mv	a1,s5
80004b40:	fed704e3          	beq	a4,a3,80004b28 <__muldf3+0x264>
80004b44:	00048413          	mv	s0,s1
80004b48:	00090793          	mv	a5,s2
80004b4c:	e61ff06f          	j	800049ac <__muldf3+0xe8>
80004b50:	01095893          	srli	a7,s2,0x10
80004b54:	01079e13          	slli	t3,a5,0x10
80004b58:	01091913          	slli	s2,s2,0x10
80004b5c:	0107d613          	srli	a2,a5,0x10
80004b60:	01095913          	srli	s2,s2,0x10
80004b64:	010e5e13          	srli	t3,t3,0x10
80004b68:	03c907b3          	mul	a5,s2,t3
80004b6c:	03c88333          	mul	t1,a7,t3
80004b70:	0107d813          	srli	a6,a5,0x10
80004b74:	03260733          	mul	a4,a2,s2
80004b78:	00670733          	add	a4,a4,t1
80004b7c:	00e80833          	add	a6,a6,a4
80004b80:	02c886b3          	mul	a3,a7,a2
80004b84:	00687663          	bgeu	a6,t1,80004b90 <__muldf3+0x2cc>
80004b88:	00010737          	lui	a4,0x10
80004b8c:	00e686b3          	add	a3,a3,a4
80004b90:	01045713          	srli	a4,s0,0x10
80004b94:	01079793          	slli	a5,a5,0x10
80004b98:	01041413          	slli	s0,s0,0x10
80004b9c:	0107d793          	srli	a5,a5,0x10
80004ba0:	01045413          	srli	s0,s0,0x10
80004ba4:	01085f93          	srli	t6,a6,0x10
80004ba8:	01081813          	slli	a6,a6,0x10
80004bac:	02890f33          	mul	t5,s2,s0
80004bb0:	00f80833          	add	a6,a6,a5
80004bb4:	03270933          	mul	s2,a4,s2
80004bb8:	010f5313          	srli	t1,t5,0x10
80004bbc:	028887b3          	mul	a5,a7,s0
80004bc0:	00f90933          	add	s2,s2,a5
80004bc4:	01230333          	add	t1,t1,s2
80004bc8:	02e888b3          	mul	a7,a7,a4
80004bcc:	00f37663          	bgeu	t1,a5,80004bd8 <__muldf3+0x314>
80004bd0:	000107b7          	lui	a5,0x10
80004bd4:	00f888b3          	add	a7,a7,a5
80004bd8:	010f1f13          	slli	t5,t5,0x10
80004bdc:	010f5f13          	srli	t5,t5,0x10
80004be0:	01031793          	slli	a5,t1,0x10
80004be4:	01e787b3          	add	a5,a5,t5
80004be8:	0104df13          	srli	t5,s1,0x10
80004bec:	01049493          	slli	s1,s1,0x10
80004bf0:	0104d493          	srli	s1,s1,0x10
80004bf4:	03c482b3          	mul	t0,s1,t3
80004bf8:	01035e93          	srli	t4,t1,0x10
80004bfc:	011e8eb3          	add	t4,t4,a7
80004c00:	00ff8fb3          	add	t6,t6,a5
80004c04:	03cf0e33          	mul	t3,t5,t3
80004c08:	0102d893          	srli	a7,t0,0x10
80004c0c:	03e603b3          	mul	t2,a2,t5
80004c10:	02960633          	mul	a2,a2,s1
80004c14:	01c60633          	add	a2,a2,t3
80004c18:	00c888b3          	add	a7,a7,a2
80004c1c:	01c8f663          	bgeu	a7,t3,80004c28 <__muldf3+0x364>
80004c20:	00010637          	lui	a2,0x10
80004c24:	00c383b3          	add	t2,t2,a2
80004c28:	02848633          	mul	a2,s1,s0
80004c2c:	01029293          	slli	t0,t0,0x10
80004c30:	0108d313          	srli	t1,a7,0x10
80004c34:	0102d293          	srli	t0,t0,0x10
80004c38:	01089893          	slli	a7,a7,0x10
80004c3c:	00730333          	add	t1,t1,t2
80004c40:	005888b3          	add	a7,a7,t0
80004c44:	028f0433          	mul	s0,t5,s0
80004c48:	01065e13          	srli	t3,a2,0x10
80004c4c:	03e70f33          	mul	t5,a4,t5
80004c50:	02970733          	mul	a4,a4,s1
80004c54:	00870733          	add	a4,a4,s0
80004c58:	00ee0e33          	add	t3,t3,a4
80004c5c:	008e7663          	bgeu	t3,s0,80004c68 <__muldf3+0x3a4>
80004c60:	00010737          	lui	a4,0x10
80004c64:	00ef0f33          	add	t5,t5,a4
80004c68:	01061613          	slli	a2,a2,0x10
80004c6c:	010e1713          	slli	a4,t3,0x10
80004c70:	01065613          	srli	a2,a2,0x10
80004c74:	01f686b3          	add	a3,a3,t6
80004c78:	00c70733          	add	a4,a4,a2
80004c7c:	01d70eb3          	add	t4,a4,t4
80004c80:	00f6b7b3          	sltu	a5,a3,a5
80004c84:	00fe87b3          	add	a5,t4,a5
80004c88:	011688b3          	add	a7,a3,a7
80004c8c:	00678333          	add	t1,a5,t1
80004c90:	00d8b6b3          	sltu	a3,a7,a3
80004c94:	00eeb633          	sltu	a2,t4,a4
80004c98:	00d306b3          	add	a3,t1,a3
80004c9c:	01d7beb3          	sltu	t4,a5,t4
80004ca0:	00f33733          	sltu	a4,t1,a5
80004ca4:	01d66633          	or	a2,a2,t4
80004ca8:	0066b333          	sltu	t1,a3,t1
80004cac:	010e5e13          	srli	t3,t3,0x10
80004cb0:	00989793          	slli	a5,a7,0x9
80004cb4:	01c60633          	add	a2,a2,t3
80004cb8:	00676733          	or	a4,a4,t1
80004cbc:	00c70733          	add	a4,a4,a2
80004cc0:	0107e7b3          	or	a5,a5,a6
80004cc4:	01e70733          	add	a4,a4,t5
80004cc8:	00f037b3          	snez	a5,a5
80004ccc:	0178d893          	srli	a7,a7,0x17
80004cd0:	00971713          	slli	a4,a4,0x9
80004cd4:	0176d413          	srli	s0,a3,0x17
80004cd8:	0117e7b3          	or	a5,a5,a7
80004cdc:	00969693          	slli	a3,a3,0x9
80004ce0:	00d7e7b3          	or	a5,a5,a3
80004ce4:	00771693          	slli	a3,a4,0x7
80004ce8:	00876433          	or	s0,a4,s0
80004cec:	0c06d263          	bgez	a3,80004db0 <__muldf3+0x4ec>
80004cf0:	0017d713          	srli	a4,a5,0x1
80004cf4:	0017f793          	andi	a5,a5,1
80004cf8:	00f76733          	or	a4,a4,a5
80004cfc:	01f41793          	slli	a5,s0,0x1f
80004d00:	00f767b3          	or	a5,a4,a5
80004d04:	00145413          	srli	s0,s0,0x1
80004d08:	3ff50713          	addi	a4,a0,1023
80004d0c:	0ae05663          	blez	a4,80004db8 <__muldf3+0x4f4>
80004d10:	0077f693          	andi	a3,a5,7
80004d14:	02068063          	beqz	a3,80004d34 <__muldf3+0x470>
80004d18:	00f7f693          	andi	a3,a5,15
80004d1c:	00400613          	li	a2,4
80004d20:	00c68a63          	beq	a3,a2,80004d34 <__muldf3+0x470>
80004d24:	00c786b3          	add	a3,a5,a2
80004d28:	00f6b633          	sltu	a2,a3,a5
80004d2c:	00c40433          	add	s0,s0,a2
80004d30:	00068793          	mv	a5,a3
80004d34:	00741693          	slli	a3,s0,0x7
80004d38:	0006da63          	bgez	a3,80004d4c <__muldf3+0x488>
80004d3c:	ff000737          	lui	a4,0xff000
80004d40:	fff70713          	addi	a4,a4,-1 # feffffff <__stack_top+0x7efe9c2f>
80004d44:	00e47433          	and	s0,s0,a4
80004d48:	40050713          	addi	a4,a0,1024
80004d4c:	7fe00693          	li	a3,2046
80004d50:	12e6ce63          	blt	a3,a4,80004e8c <__muldf3+0x5c8>
80004d54:	01d41613          	slli	a2,s0,0x1d
80004d58:	0037d793          	srli	a5,a5,0x3
80004d5c:	00f66633          	or	a2,a2,a5
80004d60:	00345413          	srli	s0,s0,0x3
80004d64:	00c41413          	slli	s0,s0,0xc
80004d68:	00c45413          	srli	s0,s0,0xc
80004d6c:	01471713          	slli	a4,a4,0x14
80004d70:	02c12083          	lw	ra,44(sp)
80004d74:	00876733          	or	a4,a4,s0
80004d78:	02812403          	lw	s0,40(sp)
80004d7c:	01f59593          	slli	a1,a1,0x1f
80004d80:	00b767b3          	or	a5,a4,a1
80004d84:	02412483          	lw	s1,36(sp)
80004d88:	02012903          	lw	s2,32(sp)
80004d8c:	01c12983          	lw	s3,28(sp)
80004d90:	01812a03          	lw	s4,24(sp)
80004d94:	01412a83          	lw	s5,20(sp)
80004d98:	01012b03          	lw	s6,16(sp)
80004d9c:	00c12b83          	lw	s7,12(sp)
80004da0:	00060513          	mv	a0,a2
80004da4:	00078593          	mv	a1,a5
80004da8:	03010113          	addi	sp,sp,48
80004dac:	00008067          	ret
80004db0:	00098513          	mv	a0,s3
80004db4:	f55ff06f          	j	80004d08 <__muldf3+0x444>
80004db8:	08070063          	beqz	a4,80004e38 <__muldf3+0x574>
80004dbc:	fc900693          	li	a3,-55
80004dc0:	c0d742e3          	blt	a4,a3,800049c4 <__muldf3+0x100>
80004dc4:	fe200693          	li	a3,-30
80004dc8:	06d74c63          	blt	a4,a3,80004e40 <__muldf3+0x57c>
80004dcc:	00100693          	li	a3,1
80004dd0:	40e68733          	sub	a4,a3,a4
80004dd4:	41e50513          	addi	a0,a0,1054
80004dd8:	00e7d6b3          	srl	a3,a5,a4
80004ddc:	00a797b3          	sll	a5,a5,a0
80004de0:	00f037b3          	snez	a5,a5
80004de4:	00a41533          	sll	a0,s0,a0
80004de8:	00a7e7b3          	or	a5,a5,a0
80004dec:	00d7e7b3          	or	a5,a5,a3
80004df0:	00e45433          	srl	s0,s0,a4
80004df4:	0077f713          	andi	a4,a5,7
80004df8:	02070063          	beqz	a4,80004e18 <__muldf3+0x554>
80004dfc:	00f7f713          	andi	a4,a5,15
80004e00:	00400693          	li	a3,4
80004e04:	00d70a63          	beq	a4,a3,80004e18 <__muldf3+0x554>
80004e08:	00d78733          	add	a4,a5,a3
80004e0c:	00f736b3          	sltu	a3,a4,a5
80004e10:	00d40433          	add	s0,s0,a3
80004e14:	00070793          	mv	a5,a4
80004e18:	00841713          	slli	a4,s0,0x8
80004e1c:	08074063          	bltz	a4,80004e9c <__muldf3+0x5d8>
80004e20:	01d41613          	slli	a2,s0,0x1d
80004e24:	0037d793          	srli	a5,a5,0x3
80004e28:	00f66633          	or	a2,a2,a5
80004e2c:	00345413          	srli	s0,s0,0x3
80004e30:	00000713          	li	a4,0
80004e34:	f31ff06f          	j	80004d64 <__muldf3+0x4a0>
80004e38:	00100713          	li	a4,1
80004e3c:	f99ff06f          	j	80004dd4 <__muldf3+0x510>
80004e40:	fe100813          	li	a6,-31
80004e44:	40e806b3          	sub	a3,a6,a4
80004e48:	00d456b3          	srl	a3,s0,a3
80004e4c:	00000613          	li	a2,0
80004e50:	01070663          	beq	a4,a6,80004e5c <__muldf3+0x598>
80004e54:	43e50513          	addi	a0,a0,1086
80004e58:	00a41633          	sll	a2,s0,a0
80004e5c:	00c7e7b3          	or	a5,a5,a2
80004e60:	00f037b3          	snez	a5,a5
80004e64:	00f6e7b3          	or	a5,a3,a5
80004e68:	00000413          	li	s0,0
80004e6c:	f89ff06f          	j	80004df4 <__muldf3+0x530>
80004e70:	00080437          	lui	s0,0x80
80004e74:	7ff00713          	li	a4,2047
80004e78:	00000593          	li	a1,0
80004e7c:	ee9ff06f          	j	80004d64 <__muldf3+0x4a0>
80004e80:	00080437          	lui	s0,0x80
80004e84:	00000613          	li	a2,0
80004e88:	fedff06f          	j	80004e74 <__muldf3+0x5b0>
80004e8c:	00000413          	li	s0,0
80004e90:	00000613          	li	a2,0
80004e94:	7ff00713          	li	a4,2047
80004e98:	ecdff06f          	j	80004d64 <__muldf3+0x4a0>
80004e9c:	00000413          	li	s0,0
80004ea0:	00000613          	li	a2,0
80004ea4:	00100713          	li	a4,1
80004ea8:	ebdff06f          	j	80004d64 <__muldf3+0x4a0>

80004eac <__subdf3>:
80004eac:	00100837          	lui	a6,0x100
80004eb0:	fff80813          	addi	a6,a6,-1 # fffff <__heap_size+0xf2fff>
80004eb4:	fe010113          	addi	sp,sp,-32
80004eb8:	00b877b3          	and	a5,a6,a1
80004ebc:	0145d713          	srli	a4,a1,0x14
80004ec0:	00d87833          	and	a6,a6,a3
80004ec4:	0146d893          	srli	a7,a3,0x14
80004ec8:	00912a23          	sw	s1,20(sp)
80004ecc:	00379793          	slli	a5,a5,0x3
80004ed0:	7ff77493          	andi	s1,a4,2047
80004ed4:	01d55713          	srli	a4,a0,0x1d
80004ed8:	01212823          	sw	s2,16(sp)
80004edc:	00f767b3          	or	a5,a4,a5
80004ee0:	01f5d913          	srli	s2,a1,0x1f
80004ee4:	01d65713          	srli	a4,a2,0x1d
80004ee8:	00381813          	slli	a6,a6,0x3
80004eec:	00112e23          	sw	ra,28(sp)
80004ef0:	00812c23          	sw	s0,24(sp)
80004ef4:	01312623          	sw	s3,12(sp)
80004ef8:	7ff8f893          	andi	a7,a7,2047
80004efc:	7ff00593          	li	a1,2047
80004f00:	00351513          	slli	a0,a0,0x3
80004f04:	01f6d693          	srli	a3,a3,0x1f
80004f08:	01076733          	or	a4,a4,a6
80004f0c:	00361613          	slli	a2,a2,0x3
80004f10:	00b89663          	bne	a7,a1,80004f1c <__subdf3+0x70>
80004f14:	00c765b3          	or	a1,a4,a2
80004f18:	00059463          	bnez	a1,80004f20 <__subdf3+0x74>
80004f1c:	0016c693          	xori	a3,a3,1
80004f20:	41148833          	sub	a6,s1,a7
80004f24:	7ff00593          	li	a1,2047
80004f28:	31269463          	bne	a3,s2,80005230 <__subdf3+0x384>
80004f2c:	11005263          	blez	a6,80005030 <__subdf3+0x184>
80004f30:	02089c63          	bnez	a7,80004f68 <__subdf3+0xbc>
80004f34:	00c766b3          	or	a3,a4,a2
80004f38:	02068463          	beqz	a3,80004f60 <__subdf3+0xb4>
80004f3c:	fff48813          	addi	a6,s1,-1 # 7fffff <__heap_size+0x7f2fff>
80004f40:	00081e63          	bnez	a6,80004f5c <__subdf3+0xb0>
80004f44:	00c50633          	add	a2,a0,a2
80004f48:	00e787b3          	add	a5,a5,a4
80004f4c:	00a63533          	sltu	a0,a2,a0
80004f50:	00a787b3          	add	a5,a5,a0
80004f54:	00100493          	li	s1,1
80004f58:	0600006f          	j	80004fb8 <__subdf3+0x10c>
80004f5c:	00b49c63          	bne	s1,a1,80004f74 <__subdf3+0xc8>
80004f60:	00050613          	mv	a2,a0
80004f64:	1d80006f          	j	8000513c <__subdf3+0x290>
80004f68:	feb48ce3          	beq	s1,a1,80004f60 <__subdf3+0xb4>
80004f6c:	008006b7          	lui	a3,0x800
80004f70:	00d76733          	or	a4,a4,a3
80004f74:	03800693          	li	a3,56
80004f78:	0b06c663          	blt	a3,a6,80005024 <__subdf3+0x178>
80004f7c:	01f00693          	li	a3,31
80004f80:	02000893          	li	a7,32
80004f84:	0706c863          	blt	a3,a6,80004ff4 <__subdf3+0x148>
80004f88:	410888b3          	sub	a7,a7,a6
80004f8c:	011716b3          	sll	a3,a4,a7
80004f90:	010655b3          	srl	a1,a2,a6
80004f94:	011618b3          	sll	a7,a2,a7
80004f98:	00b6e6b3          	or	a3,a3,a1
80004f9c:	011038b3          	snez	a7,a7
80004fa0:	0116e6b3          	or	a3,a3,a7
80004fa4:	01075833          	srl	a6,a4,a6
80004fa8:	00a68633          	add	a2,a3,a0
80004fac:	00f80833          	add	a6,a6,a5
80004fb0:	00d636b3          	sltu	a3,a2,a3
80004fb4:	00d807b3          	add	a5,a6,a3
80004fb8:	00879713          	slli	a4,a5,0x8
80004fbc:	22075663          	bgez	a4,800051e8 <__subdf3+0x33c>
80004fc0:	00148493          	addi	s1,s1,1
80004fc4:	7ff00713          	li	a4,2047
80004fc8:	60e48863          	beq	s1,a4,800055d8 <__subdf3+0x72c>
80004fcc:	ff800737          	lui	a4,0xff800
80004fd0:	fff70713          	addi	a4,a4,-1 # ff7fffff <__stack_top+0x7f7e9c2f>
80004fd4:	00e7f7b3          	and	a5,a5,a4
80004fd8:	00165713          	srli	a4,a2,0x1
80004fdc:	00167613          	andi	a2,a2,1
80004fe0:	00c76733          	or	a4,a4,a2
80004fe4:	01f79613          	slli	a2,a5,0x1f
80004fe8:	00e66633          	or	a2,a2,a4
80004fec:	0017d793          	srli	a5,a5,0x1
80004ff0:	1f80006f          	j	800051e8 <__subdf3+0x33c>
80004ff4:	fe080693          	addi	a3,a6,-32
80004ff8:	00d756b3          	srl	a3,a4,a3
80004ffc:	00000593          	li	a1,0
80005000:	01180863          	beq	a6,a7,80005010 <__subdf3+0x164>
80005004:	04000593          	li	a1,64
80005008:	410585b3          	sub	a1,a1,a6
8000500c:	00b715b3          	sll	a1,a4,a1
80005010:	00c5e5b3          	or	a1,a1,a2
80005014:	00b035b3          	snez	a1,a1
80005018:	00b6e6b3          	or	a3,a3,a1
8000501c:	00000813          	li	a6,0
80005020:	f89ff06f          	j	80004fa8 <__subdf3+0xfc>
80005024:	00c766b3          	or	a3,a4,a2
80005028:	00d036b3          	snez	a3,a3
8000502c:	ff1ff06f          	j	8000501c <__subdf3+0x170>
80005030:	0c080263          	beqz	a6,800050f4 <__subdf3+0x248>
80005034:	409886b3          	sub	a3,a7,s1
80005038:	02049263          	bnez	s1,8000505c <__subdf3+0x1b0>
8000503c:	00a7e833          	or	a6,a5,a0
80005040:	00080863          	beqz	a6,80005050 <__subdf3+0x1a4>
80005044:	fff68813          	addi	a6,a3,-1 # 7fffff <__heap_size+0x7f2fff>
80005048:	ee080ee3          	beqz	a6,80004f44 <__subdf3+0x98>
8000504c:	02b69063          	bne	a3,a1,8000506c <__subdf3+0x1c0>
80005050:	00070793          	mv	a5,a4
80005054:	00068493          	mv	s1,a3
80005058:	0e40006f          	j	8000513c <__subdf3+0x290>
8000505c:	58b88663          	beq	a7,a1,800055e8 <__subdf3+0x73c>
80005060:	008005b7          	lui	a1,0x800
80005064:	00b7e7b3          	or	a5,a5,a1
80005068:	00068813          	mv	a6,a3
8000506c:	03800693          	li	a3,56
80005070:	0706cc63          	blt	a3,a6,800050e8 <__subdf3+0x23c>
80005074:	01f00693          	li	a3,31
80005078:	02000313          	li	t1,32
8000507c:	0306ce63          	blt	a3,a6,800050b8 <__subdf3+0x20c>
80005080:	41030333          	sub	t1,t1,a6
80005084:	006796b3          	sll	a3,a5,t1
80005088:	010555b3          	srl	a1,a0,a6
8000508c:	00651333          	sll	t1,a0,t1
80005090:	00b6e6b3          	or	a3,a3,a1
80005094:	00603333          	snez	t1,t1
80005098:	0066e6b3          	or	a3,a3,t1
8000509c:	0107d833          	srl	a6,a5,a6
800050a0:	00c68633          	add	a2,a3,a2
800050a4:	00e80833          	add	a6,a6,a4
800050a8:	00d636b3          	sltu	a3,a2,a3
800050ac:	00d807b3          	add	a5,a6,a3
800050b0:	00088493          	mv	s1,a7
800050b4:	f05ff06f          	j	80004fb8 <__subdf3+0x10c>
800050b8:	fe080693          	addi	a3,a6,-32
800050bc:	00d7d6b3          	srl	a3,a5,a3
800050c0:	00000593          	li	a1,0
800050c4:	00680863          	beq	a6,t1,800050d4 <__subdf3+0x228>
800050c8:	04000593          	li	a1,64
800050cc:	410585b3          	sub	a1,a1,a6
800050d0:	00b795b3          	sll	a1,a5,a1
800050d4:	00a5e5b3          	or	a1,a1,a0
800050d8:	00b035b3          	snez	a1,a1
800050dc:	00b6e6b3          	or	a3,a3,a1
800050e0:	00000813          	li	a6,0
800050e4:	fbdff06f          	j	800050a0 <__subdf3+0x1f4>
800050e8:	00a7e6b3          	or	a3,a5,a0
800050ec:	00d036b3          	snez	a3,a3
800050f0:	ff1ff06f          	j	800050e0 <__subdf3+0x234>
800050f4:	00148693          	addi	a3,s1,1
800050f8:	7fe6f813          	andi	a6,a3,2046
800050fc:	0c081263          	bnez	a6,800051c0 <__subdf3+0x314>
80005100:	00a7e6b3          	or	a3,a5,a0
80005104:	0a049463          	bnez	s1,800051ac <__subdf3+0x300>
80005108:	4a068863          	beqz	a3,800055b8 <__subdf3+0x70c>
8000510c:	00c766b3          	or	a3,a4,a2
80005110:	4a068863          	beqz	a3,800055c0 <__subdf3+0x714>
80005114:	00c50633          	add	a2,a0,a2
80005118:	00e787b3          	add	a5,a5,a4
8000511c:	00a63533          	sltu	a0,a2,a0
80005120:	00a787b3          	add	a5,a5,a0
80005124:	00879713          	slli	a4,a5,0x8
80005128:	32075a63          	bgez	a4,8000545c <__subdf3+0x5b0>
8000512c:	ff800737          	lui	a4,0xff800
80005130:	fff70713          	addi	a4,a4,-1 # ff7fffff <__stack_top+0x7f7e9c2f>
80005134:	00e7f7b3          	and	a5,a5,a4
80005138:	00100493          	li	s1,1
8000513c:	01d79693          	slli	a3,a5,0x1d
80005140:	00365613          	srli	a2,a2,0x3
80005144:	7ff00713          	li	a4,2047
80005148:	00c6e6b3          	or	a3,a3,a2
8000514c:	0037d793          	srli	a5,a5,0x3
80005150:	00e49e63          	bne	s1,a4,8000516c <__subdf3+0x2c0>
80005154:	00f6e6b3          	or	a3,a3,a5
80005158:	00000793          	li	a5,0
8000515c:	00068863          	beqz	a3,8000516c <__subdf3+0x2c0>
80005160:	000807b7          	lui	a5,0x80
80005164:	00000693          	li	a3,0
80005168:	00000913          	li	s2,0
8000516c:	7ff4f713          	andi	a4,s1,2047
80005170:	00c79793          	slli	a5,a5,0xc
80005174:	01c12083          	lw	ra,28(sp)
80005178:	01812403          	lw	s0,24(sp)
8000517c:	00c7d793          	srli	a5,a5,0xc
80005180:	01471713          	slli	a4,a4,0x14
80005184:	01f91593          	slli	a1,s2,0x1f
80005188:	00f76733          	or	a4,a4,a5
8000518c:	00b767b3          	or	a5,a4,a1
80005190:	01412483          	lw	s1,20(sp)
80005194:	01012903          	lw	s2,16(sp)
80005198:	00c12983          	lw	s3,12(sp)
8000519c:	00068513          	mv	a0,a3
800051a0:	00078593          	mv	a1,a5
800051a4:	02010113          	addi	sp,sp,32
800051a8:	00008067          	ret
800051ac:	40068e63          	beqz	a3,800055c8 <__subdf3+0x71c>
800051b0:	00c76733          	or	a4,a4,a2
800051b4:	2c071c63          	bnez	a4,8000548c <__subdf3+0x5e0>
800051b8:	00050613          	mv	a2,a0
800051bc:	4100006f          	j	800055cc <__subdf3+0x720>
800051c0:	40b68a63          	beq	a3,a1,800055d4 <__subdf3+0x728>
800051c4:	00c50633          	add	a2,a0,a2
800051c8:	00e787b3          	add	a5,a5,a4
800051cc:	00a63533          	sltu	a0,a2,a0
800051d0:	00a787b3          	add	a5,a5,a0
800051d4:	01f79713          	slli	a4,a5,0x1f
800051d8:	00165613          	srli	a2,a2,0x1
800051dc:	00c76633          	or	a2,a4,a2
800051e0:	0017d793          	srli	a5,a5,0x1
800051e4:	00068493          	mv	s1,a3
800051e8:	00767713          	andi	a4,a2,7
800051ec:	02070063          	beqz	a4,8000520c <__subdf3+0x360>
800051f0:	00f67713          	andi	a4,a2,15
800051f4:	00400693          	li	a3,4
800051f8:	00d70a63          	beq	a4,a3,8000520c <__subdf3+0x360>
800051fc:	00d60733          	add	a4,a2,a3
80005200:	00c736b3          	sltu	a3,a4,a2
80005204:	00d787b3          	add	a5,a5,a3
80005208:	00070613          	mv	a2,a4
8000520c:	00879713          	slli	a4,a5,0x8
80005210:	f20756e3          	bgez	a4,8000513c <__subdf3+0x290>
80005214:	00148493          	addi	s1,s1,1
80005218:	7ff00713          	li	a4,2047
8000521c:	3ae48e63          	beq	s1,a4,800055d8 <__subdf3+0x72c>
80005220:	ff800737          	lui	a4,0xff800
80005224:	fff70713          	addi	a4,a4,-1 # ff7fffff <__stack_top+0x7f7e9c2f>
80005228:	00e7f7b3          	and	a5,a5,a4
8000522c:	f11ff06f          	j	8000513c <__subdf3+0x290>
80005230:	0f005063          	blez	a6,80005310 <__subdf3+0x464>
80005234:	08089863          	bnez	a7,800052c4 <__subdf3+0x418>
80005238:	00c766b3          	or	a3,a4,a2
8000523c:	d20682e3          	beqz	a3,80004f60 <__subdf3+0xb4>
80005240:	fff48813          	addi	a6,s1,-1
80005244:	00081e63          	bnez	a6,80005260 <__subdf3+0x3b4>
80005248:	40c50633          	sub	a2,a0,a2
8000524c:	40e787b3          	sub	a5,a5,a4
80005250:	00c53533          	sltu	a0,a0,a2
80005254:	40a787b3          	sub	a5,a5,a0
80005258:	00100493          	li	s1,1
8000525c:	04c0006f          	j	800052a8 <__subdf3+0x3fc>
80005260:	d0b480e3          	beq	s1,a1,80004f60 <__subdf3+0xb4>
80005264:	03800693          	li	a3,56
80005268:	0906ce63          	blt	a3,a6,80005304 <__subdf3+0x458>
8000526c:	01f00693          	li	a3,31
80005270:	02000893          	li	a7,32
80005274:	0706c063          	blt	a3,a6,800052d4 <__subdf3+0x428>
80005278:	410888b3          	sub	a7,a7,a6
8000527c:	011716b3          	sll	a3,a4,a7
80005280:	010655b3          	srl	a1,a2,a6
80005284:	011618b3          	sll	a7,a2,a7
80005288:	00b6e6b3          	or	a3,a3,a1
8000528c:	011038b3          	snez	a7,a7
80005290:	0116e6b3          	or	a3,a3,a7
80005294:	01075833          	srl	a6,a4,a6
80005298:	40d50633          	sub	a2,a0,a3
8000529c:	41078833          	sub	a6,a5,a6
800052a0:	00c53533          	sltu	a0,a0,a2
800052a4:	40a807b3          	sub	a5,a6,a0
800052a8:	00879713          	slli	a4,a5,0x8
800052ac:	f2075ee3          	bgez	a4,800051e8 <__subdf3+0x33c>
800052b0:	00800437          	lui	s0,0x800
800052b4:	fff40413          	addi	s0,s0,-1 # 7fffff <__heap_size+0x7f2fff>
800052b8:	0087f433          	and	s0,a5,s0
800052bc:	00060993          	mv	s3,a2
800052c0:	2140006f          	j	800054d4 <__subdf3+0x628>
800052c4:	c8b48ee3          	beq	s1,a1,80004f60 <__subdf3+0xb4>
800052c8:	008006b7          	lui	a3,0x800
800052cc:	00d76733          	or	a4,a4,a3
800052d0:	f95ff06f          	j	80005264 <__subdf3+0x3b8>
800052d4:	fe080693          	addi	a3,a6,-32
800052d8:	00d756b3          	srl	a3,a4,a3
800052dc:	00000593          	li	a1,0
800052e0:	01180863          	beq	a6,a7,800052f0 <__subdf3+0x444>
800052e4:	04000593          	li	a1,64
800052e8:	410585b3          	sub	a1,a1,a6
800052ec:	00b715b3          	sll	a1,a4,a1
800052f0:	00c5e5b3          	or	a1,a1,a2
800052f4:	00b035b3          	snez	a1,a1
800052f8:	00b6e6b3          	or	a3,a3,a1
800052fc:	00000813          	li	a6,0
80005300:	f99ff06f          	j	80005298 <__subdf3+0x3ec>
80005304:	00c766b3          	or	a3,a4,a2
80005308:	00d036b3          	snez	a3,a3
8000530c:	ff1ff06f          	j	800052fc <__subdf3+0x450>
80005310:	0e080663          	beqz	a6,800053fc <__subdf3+0x550>
80005314:	40988333          	sub	t1,a7,s1
80005318:	04049263          	bnez	s1,8000535c <__subdf3+0x4b0>
8000531c:	00a7e833          	or	a6,a5,a0
80005320:	02080663          	beqz	a6,8000534c <__subdf3+0x4a0>
80005324:	fff30813          	addi	a6,t1,-1
80005328:	02081063          	bnez	a6,80005348 <__subdf3+0x49c>
8000532c:	40a60533          	sub	a0,a2,a0
80005330:	00a635b3          	sltu	a1,a2,a0
80005334:	40f707b3          	sub	a5,a4,a5
80005338:	00050613          	mv	a2,a0
8000533c:	40b787b3          	sub	a5,a5,a1
80005340:	00068913          	mv	s2,a3
80005344:	f15ff06f          	j	80005258 <__subdf3+0x3ac>
80005348:	02b31263          	bne	t1,a1,8000536c <__subdf3+0x4c0>
8000534c:	00068913          	mv	s2,a3
80005350:	00070793          	mv	a5,a4
80005354:	00030493          	mv	s1,t1
80005358:	de5ff06f          	j	8000513c <__subdf3+0x290>
8000535c:	28b88463          	beq	a7,a1,800055e4 <__subdf3+0x738>
80005360:	008005b7          	lui	a1,0x800
80005364:	00b7e7b3          	or	a5,a5,a1
80005368:	00030813          	mv	a6,t1
8000536c:	03800593          	li	a1,56
80005370:	0905c063          	blt	a1,a6,800053f0 <__subdf3+0x544>
80005374:	01f00593          	li	a1,31
80005378:	02000e13          	li	t3,32
8000537c:	0505c263          	blt	a1,a6,800053c0 <__subdf3+0x514>
80005380:	410e0e33          	sub	t3,t3,a6
80005384:	01c795b3          	sll	a1,a5,t3
80005388:	01055333          	srl	t1,a0,a6
8000538c:	01c51e33          	sll	t3,a0,t3
80005390:	0065e5b3          	or	a1,a1,t1
80005394:	01c03e33          	snez	t3,t3
80005398:	01c5e5b3          	or	a1,a1,t3
8000539c:	0107d833          	srl	a6,a5,a6
800053a0:	40b605b3          	sub	a1,a2,a1
800053a4:	00b637b3          	sltu	a5,a2,a1
800053a8:	41070833          	sub	a6,a4,a6
800053ac:	00058613          	mv	a2,a1
800053b0:	40f807b3          	sub	a5,a6,a5
800053b4:	00088493          	mv	s1,a7
800053b8:	00068913          	mv	s2,a3
800053bc:	eedff06f          	j	800052a8 <__subdf3+0x3fc>
800053c0:	fe080593          	addi	a1,a6,-32
800053c4:	00b7d5b3          	srl	a1,a5,a1
800053c8:	00000313          	li	t1,0
800053cc:	01c80863          	beq	a6,t3,800053dc <__subdf3+0x530>
800053d0:	04000313          	li	t1,64
800053d4:	41030333          	sub	t1,t1,a6
800053d8:	00679333          	sll	t1,a5,t1
800053dc:	00a36333          	or	t1,t1,a0
800053e0:	00603333          	snez	t1,t1
800053e4:	0065e5b3          	or	a1,a1,t1
800053e8:	00000813          	li	a6,0
800053ec:	fb5ff06f          	j	800053a0 <__subdf3+0x4f4>
800053f0:	00a7e5b3          	or	a1,a5,a0
800053f4:	00b035b3          	snez	a1,a1
800053f8:	ff1ff06f          	j	800053e8 <__subdf3+0x53c>
800053fc:	00148813          	addi	a6,s1,1
80005400:	7fe87813          	andi	a6,a6,2046
80005404:	0a081063          	bnez	a6,800054a4 <__subdf3+0x5f8>
80005408:	00c76833          	or	a6,a4,a2
8000540c:	00a7e8b3          	or	a7,a5,a0
80005410:	06049863          	bnez	s1,80005480 <__subdf3+0x5d4>
80005414:	00089a63          	bnez	a7,80005428 <__subdf3+0x57c>
80005418:	00070793          	mv	a5,a4
8000541c:	02081e63          	bnez	a6,80005458 <__subdf3+0x5ac>
80005420:	00000913          	li	s2,0
80005424:	1b40006f          	j	800055d8 <__subdf3+0x72c>
80005428:	18080c63          	beqz	a6,800055c0 <__subdf3+0x714>
8000542c:	40c50833          	sub	a6,a0,a2
80005430:	010538b3          	sltu	a7,a0,a6
80005434:	40e785b3          	sub	a1,a5,a4
80005438:	411585b3          	sub	a1,a1,a7
8000543c:	00859893          	slli	a7,a1,0x8
80005440:	0208d663          	bgez	a7,8000546c <__subdf3+0x5c0>
80005444:	40a60533          	sub	a0,a2,a0
80005448:	00a635b3          	sltu	a1,a2,a0
8000544c:	40f707b3          	sub	a5,a4,a5
80005450:	00050613          	mv	a2,a0
80005454:	40b787b3          	sub	a5,a5,a1
80005458:	00068913          	mv	s2,a3
8000545c:	00f66733          	or	a4,a2,a5
80005460:	1a070063          	beqz	a4,80005600 <__subdf3+0x754>
80005464:	00000493          	li	s1,0
80005468:	d81ff06f          	j	800051e8 <__subdf3+0x33c>
8000546c:	00b86633          	or	a2,a6,a1
80005470:	18060263          	beqz	a2,800055f4 <__subdf3+0x748>
80005474:	00058793          	mv	a5,a1
80005478:	00080613          	mv	a2,a6
8000547c:	fe1ff06f          	j	8000545c <__subdf3+0x5b0>
80005480:	00089e63          	bnez	a7,8000549c <__subdf3+0x5f0>
80005484:	00068913          	mv	s2,a3
80005488:	14081063          	bnez	a6,800055c8 <__subdf3+0x71c>
8000548c:	00000913          	li	s2,0
80005490:	004007b7          	lui	a5,0x400
80005494:	00000613          	li	a2,0
80005498:	1340006f          	j	800055cc <__subdf3+0x720>
8000549c:	d0080ee3          	beqz	a6,800051b8 <__subdf3+0x30c>
800054a0:	fedff06f          	j	8000548c <__subdf3+0x5e0>
800054a4:	40c505b3          	sub	a1,a0,a2
800054a8:	00b53833          	sltu	a6,a0,a1
800054ac:	40e78433          	sub	s0,a5,a4
800054b0:	41040433          	sub	s0,s0,a6
800054b4:	00841813          	slli	a6,s0,0x8
800054b8:	00058993          	mv	s3,a1
800054bc:	06085e63          	bgez	a6,80005538 <__subdf3+0x68c>
800054c0:	40a609b3          	sub	s3,a2,a0
800054c4:	40f70433          	sub	s0,a4,a5
800054c8:	01363633          	sltu	a2,a2,s3
800054cc:	40c40433          	sub	s0,s0,a2
800054d0:	00068913          	mv	s2,a3
800054d4:	06040e63          	beqz	s0,80005550 <__subdf3+0x6a4>
800054d8:	00040513          	mv	a0,s0
800054dc:	405000ef          	jal	800060e0 <__clzsi2>
800054e0:	ff850713          	addi	a4,a0,-8
800054e4:	02000793          	li	a5,32
800054e8:	40e787b3          	sub	a5,a5,a4
800054ec:	00e41433          	sll	s0,s0,a4
800054f0:	00f9d7b3          	srl	a5,s3,a5
800054f4:	0087e7b3          	or	a5,a5,s0
800054f8:	00e99633          	sll	a2,s3,a4
800054fc:	0a974463          	blt	a4,s1,800055a4 <__subdf3+0x6f8>
80005500:	40970733          	sub	a4,a4,s1
80005504:	00170513          	addi	a0,a4,1
80005508:	01f00693          	li	a3,31
8000550c:	02000593          	li	a1,32
80005510:	06a6c263          	blt	a3,a0,80005574 <__subdf3+0x6c8>
80005514:	40a585b3          	sub	a1,a1,a0
80005518:	00b79733          	sll	a4,a5,a1
8000551c:	00a656b3          	srl	a3,a2,a0
80005520:	00b615b3          	sll	a1,a2,a1
80005524:	00d76733          	or	a4,a4,a3
80005528:	00b035b3          	snez	a1,a1
8000552c:	00b76633          	or	a2,a4,a1
80005530:	00a7d7b3          	srl	a5,a5,a0
80005534:	f29ff06f          	j	8000545c <__subdf3+0x5b0>
80005538:	0085e633          	or	a2,a1,s0
8000553c:	f8061ce3          	bnez	a2,800054d4 <__subdf3+0x628>
80005540:	00000913          	li	s2,0
80005544:	00000793          	li	a5,0
80005548:	00000493          	li	s1,0
8000554c:	bf1ff06f          	j	8000513c <__subdf3+0x290>
80005550:	00098513          	mv	a0,s3
80005554:	38d000ef          	jal	800060e0 <__clzsi2>
80005558:	01850713          	addi	a4,a0,24
8000555c:	01f00793          	li	a5,31
80005560:	f8e7d2e3          	bge	a5,a4,800054e4 <__subdf3+0x638>
80005564:	ff850793          	addi	a5,a0,-8
80005568:	00f997b3          	sll	a5,s3,a5
8000556c:	00000613          	li	a2,0
80005570:	f8dff06f          	j	800054fc <__subdf3+0x650>
80005574:	fe170713          	addi	a4,a4,-31
80005578:	00e7d733          	srl	a4,a5,a4
8000557c:	00000693          	li	a3,0
80005580:	00b50863          	beq	a0,a1,80005590 <__subdf3+0x6e4>
80005584:	04000693          	li	a3,64
80005588:	40a686b3          	sub	a3,a3,a0
8000558c:	00d796b3          	sll	a3,a5,a3
80005590:	00d666b3          	or	a3,a2,a3
80005594:	00d036b3          	snez	a3,a3
80005598:	00d76633          	or	a2,a4,a3
8000559c:	00000793          	li	a5,0
800055a0:	ebdff06f          	j	8000545c <__subdf3+0x5b0>
800055a4:	40e484b3          	sub	s1,s1,a4
800055a8:	ff800737          	lui	a4,0xff800
800055ac:	fff70713          	addi	a4,a4,-1 # ff7fffff <__stack_top+0x7f7e9c2f>
800055b0:	00e7f7b3          	and	a5,a5,a4
800055b4:	c35ff06f          	j	800051e8 <__subdf3+0x33c>
800055b8:	00070793          	mv	a5,a4
800055bc:	ea1ff06f          	j	8000545c <__subdf3+0x5b0>
800055c0:	00050613          	mv	a2,a0
800055c4:	e99ff06f          	j	8000545c <__subdf3+0x5b0>
800055c8:	00070793          	mv	a5,a4
800055cc:	00058493          	mv	s1,a1
800055d0:	b6dff06f          	j	8000513c <__subdf3+0x290>
800055d4:	00068493          	mv	s1,a3
800055d8:	00000793          	li	a5,0
800055dc:	00000613          	li	a2,0
800055e0:	b5dff06f          	j	8000513c <__subdf3+0x290>
800055e4:	00068913          	mv	s2,a3
800055e8:	00070793          	mv	a5,a4
800055ec:	00088493          	mv	s1,a7
800055f0:	b4dff06f          	j	8000513c <__subdf3+0x290>
800055f4:	00000913          	li	s2,0
800055f8:	00000793          	li	a5,0
800055fc:	b41ff06f          	j	8000513c <__subdf3+0x290>
80005600:	00000793          	li	a5,0
80005604:	00000613          	li	a2,0
80005608:	f41ff06f          	j	80005548 <__subdf3+0x69c>

8000560c <__fixdfsi>:
8000560c:	0145d713          	srli	a4,a1,0x14
80005610:	001006b7          	lui	a3,0x100
80005614:	fff68793          	addi	a5,a3,-1 # fffff <__heap_size+0xf2fff>
80005618:	7ff77713          	andi	a4,a4,2047
8000561c:	3fe00613          	li	a2,1022
80005620:	00b7f7b3          	and	a5,a5,a1
80005624:	01f5d593          	srli	a1,a1,0x1f
80005628:	04e65c63          	bge	a2,a4,80005680 <__fixdfsi+0x74>
8000562c:	41d00613          	li	a2,1053
80005630:	00e65a63          	bge	a2,a4,80005644 <__fixdfsi+0x38>
80005634:	80000537          	lui	a0,0x80000
80005638:	fff50513          	addi	a0,a0,-1 # 7fffffff <__heap_size+0x7fff2fff>
8000563c:	00a58533          	add	a0,a1,a0
80005640:	00008067          	ret
80005644:	00d7e7b3          	or	a5,a5,a3
80005648:	41300693          	li	a3,1043
8000564c:	02e6d463          	bge	a3,a4,80005674 <__fixdfsi+0x68>
80005650:	bed70693          	addi	a3,a4,-1043
80005654:	00d797b3          	sll	a5,a5,a3
80005658:	43300693          	li	a3,1075
8000565c:	40e68733          	sub	a4,a3,a4
80005660:	00e55533          	srl	a0,a0,a4
80005664:	00a7e533          	or	a0,a5,a0
80005668:	00058e63          	beqz	a1,80005684 <__fixdfsi+0x78>
8000566c:	40a00533          	neg	a0,a0
80005670:	00008067          	ret
80005674:	40e686b3          	sub	a3,a3,a4
80005678:	00d7d533          	srl	a0,a5,a3
8000567c:	fedff06f          	j	80005668 <__fixdfsi+0x5c>
80005680:	00000513          	li	a0,0
80005684:	00008067          	ret

80005688 <__fixunsdfsi>:
80005688:	0145d713          	srli	a4,a1,0x14
8000568c:	00100837          	lui	a6,0x100
80005690:	fff80793          	addi	a5,a6,-1 # fffff <__heap_size+0xf2fff>
80005694:	7ff77713          	andi	a4,a4,2047
80005698:	3fe00693          	li	a3,1022
8000569c:	00b7f7b3          	and	a5,a5,a1
800056a0:	00050613          	mv	a2,a0
800056a4:	01f5d593          	srli	a1,a1,0x1f
800056a8:	04e6d863          	bge	a3,a4,800056f8 <__fixunsdfsi+0x70>
800056ac:	41f00693          	li	a3,1055
800056b0:	40b686b3          	sub	a3,a3,a1
800056b4:	fff58513          	addi	a0,a1,-1 # 7fffff <__heap_size+0x7f2fff>
800056b8:	04d75263          	bge	a4,a3,800056fc <__fixunsdfsi+0x74>
800056bc:	00000513          	li	a0,0
800056c0:	02059e63          	bnez	a1,800056fc <__fixunsdfsi+0x74>
800056c4:	41300693          	li	a3,1043
800056c8:	0107e7b3          	or	a5,a5,a6
800056cc:	02e6d063          	bge	a3,a4,800056ec <__fixunsdfsi+0x64>
800056d0:	bed70693          	addi	a3,a4,-1043
800056d4:	00d797b3          	sll	a5,a5,a3
800056d8:	43300693          	li	a3,1075
800056dc:	40e68733          	sub	a4,a3,a4
800056e0:	00e65633          	srl	a2,a2,a4
800056e4:	00c7e533          	or	a0,a5,a2
800056e8:	00008067          	ret
800056ec:	40e686b3          	sub	a3,a3,a4
800056f0:	00d7d533          	srl	a0,a5,a3
800056f4:	00008067          	ret
800056f8:	00000513          	li	a0,0
800056fc:	00008067          	ret

80005700 <__floatsidf>:
80005700:	ff010113          	addi	sp,sp,-16
80005704:	00112623          	sw	ra,12(sp)
80005708:	00812423          	sw	s0,8(sp)
8000570c:	00912223          	sw	s1,4(sp)
80005710:	00050793          	mv	a5,a0
80005714:	08050063          	beqz	a0,80005794 <__floatsidf+0x94>
80005718:	41f55713          	srai	a4,a0,0x1f
8000571c:	00a74433          	xor	s0,a4,a0
80005720:	40e40433          	sub	s0,s0,a4
80005724:	01f55493          	srli	s1,a0,0x1f
80005728:	00040513          	mv	a0,s0
8000572c:	1b5000ef          	jal	800060e0 <__clzsi2>
80005730:	41e00793          	li	a5,1054
80005734:	00a00713          	li	a4,10
80005738:	40a787b3          	sub	a5,a5,a0
8000573c:	04a74463          	blt	a4,a0,80005784 <__floatsidf+0x84>
80005740:	00b00713          	li	a4,11
80005744:	40a70733          	sub	a4,a4,a0
80005748:	01550513          	addi	a0,a0,21
8000574c:	00e45733          	srl	a4,s0,a4
80005750:	00a41433          	sll	s0,s0,a0
80005754:	00c12083          	lw	ra,12(sp)
80005758:	00040513          	mv	a0,s0
8000575c:	00c71713          	slli	a4,a4,0xc
80005760:	00812403          	lw	s0,8(sp)
80005764:	01479793          	slli	a5,a5,0x14
80005768:	00c75713          	srli	a4,a4,0xc
8000576c:	01f49493          	slli	s1,s1,0x1f
80005770:	00e7e7b3          	or	a5,a5,a4
80005774:	0097e5b3          	or	a1,a5,s1
80005778:	00412483          	lw	s1,4(sp)
8000577c:	01010113          	addi	sp,sp,16
80005780:	00008067          	ret
80005784:	ff550513          	addi	a0,a0,-11
80005788:	00a41733          	sll	a4,s0,a0
8000578c:	00000413          	li	s0,0
80005790:	fc5ff06f          	j	80005754 <__floatsidf+0x54>
80005794:	00000493          	li	s1,0
80005798:	00000713          	li	a4,0
8000579c:	ff1ff06f          	j	8000578c <__floatsidf+0x8c>

800057a0 <__floatunsidf>:
800057a0:	ff010113          	addi	sp,sp,-16
800057a4:	00812423          	sw	s0,8(sp)
800057a8:	00112623          	sw	ra,12(sp)
800057ac:	00050413          	mv	s0,a0
800057b0:	06050063          	beqz	a0,80005810 <__floatunsidf+0x70>
800057b4:	12d000ef          	jal	800060e0 <__clzsi2>
800057b8:	41e00713          	li	a4,1054
800057bc:	00a00793          	li	a5,10
800057c0:	40a70733          	sub	a4,a4,a0
800057c4:	02a7ce63          	blt	a5,a0,80005800 <__floatunsidf+0x60>
800057c8:	00b00793          	li	a5,11
800057cc:	40a787b3          	sub	a5,a5,a0
800057d0:	01550513          	addi	a0,a0,21
800057d4:	00f457b3          	srl	a5,s0,a5
800057d8:	00a41433          	sll	s0,s0,a0
800057dc:	00c12083          	lw	ra,12(sp)
800057e0:	00040513          	mv	a0,s0
800057e4:	00812403          	lw	s0,8(sp)
800057e8:	00c79793          	slli	a5,a5,0xc
800057ec:	01471713          	slli	a4,a4,0x14
800057f0:	00c7d793          	srli	a5,a5,0xc
800057f4:	00f765b3          	or	a1,a4,a5
800057f8:	01010113          	addi	sp,sp,16
800057fc:	00008067          	ret
80005800:	ff550513          	addi	a0,a0,-11
80005804:	00a417b3          	sll	a5,s0,a0
80005808:	00000413          	li	s0,0
8000580c:	fd1ff06f          	j	800057dc <__floatunsidf+0x3c>
80005810:	00000793          	li	a5,0
80005814:	00000713          	li	a4,0
80005818:	fc5ff06f          	j	800057dc <__floatunsidf+0x3c>

8000581c <__addsf3>:
8000581c:	ff010113          	addi	sp,sp,-16
80005820:	00800737          	lui	a4,0x800
80005824:	fff70713          	addi	a4,a4,-1 # 7fffff <__heap_size+0x7f2fff>
80005828:	0175d613          	srli	a2,a1,0x17
8000582c:	00812423          	sw	s0,8(sp)
80005830:	01755413          	srli	s0,a0,0x17
80005834:	00a777b3          	and	a5,a4,a0
80005838:	00912223          	sw	s1,4(sp)
8000583c:	00b77733          	and	a4,a4,a1
80005840:	0ff47413          	zext.b	s0,s0
80005844:	0ff67613          	zext.b	a2,a2
80005848:	00112623          	sw	ra,12(sp)
8000584c:	01212023          	sw	s2,0(sp)
80005850:	01f55493          	srli	s1,a0,0x1f
80005854:	01f5d593          	srli	a1,a1,0x1f
80005858:	00379793          	slli	a5,a5,0x3
8000585c:	00371713          	slli	a4,a4,0x3
80005860:	40c406b3          	sub	a3,s0,a2
80005864:	1cb49c63          	bne	s1,a1,80005a3c <__addsf3+0x220>
80005868:	08d05e63          	blez	a3,80005904 <__addsf3+0xe8>
8000586c:	0ff00593          	li	a1,255
80005870:	02061663          	bnez	a2,8000589c <__addsf3+0x80>
80005874:	00070e63          	beqz	a4,80005890 <__addsf3+0x74>
80005878:	fff68613          	addi	a2,a3,-1
8000587c:	00061863          	bnez	a2,8000588c <__addsf3+0x70>
80005880:	00e787b3          	add	a5,a5,a4
80005884:	00100413          	li	s0,1
80005888:	04c0006f          	j	800058d4 <__addsf3+0xb8>
8000588c:	02b69063          	bne	a3,a1,800058ac <__addsf3+0x90>
80005890:	00068413          	mv	s0,a3
80005894:	00078713          	mv	a4,a5
80005898:	2c00006f          	j	80005b58 <__addsf3+0x33c>
8000589c:	feb40ce3          	beq	s0,a1,80005894 <__addsf3+0x78>
800058a0:	04000637          	lui	a2,0x4000
800058a4:	00c76733          	or	a4,a4,a2
800058a8:	00068613          	mv	a2,a3
800058ac:	01b00593          	li	a1,27
800058b0:	00100693          	li	a3,1
800058b4:	00c5ce63          	blt	a1,a2,800058d0 <__addsf3+0xb4>
800058b8:	02000693          	li	a3,32
800058bc:	40c686b3          	sub	a3,a3,a2
800058c0:	00c755b3          	srl	a1,a4,a2
800058c4:	00d71733          	sll	a4,a4,a3
800058c8:	00e03733          	snez	a4,a4
800058cc:	00e5e6b3          	or	a3,a1,a4
800058d0:	00d787b3          	add	a5,a5,a3
800058d4:	00579713          	slli	a4,a5,0x5
800058d8:	12075263          	bgez	a4,800059fc <__addsf3+0x1e0>
800058dc:	00140413          	addi	s0,s0,1
800058e0:	0ff00713          	li	a4,255
800058e4:	34e40e63          	beq	s0,a4,80005c40 <__addsf3+0x424>
800058e8:	7e0006b7          	lui	a3,0x7e000
800058ec:	0017d713          	srli	a4,a5,0x1
800058f0:	fff68693          	addi	a3,a3,-1 # 7dffffff <__heap_size+0x7dff2fff>
800058f4:	00d77733          	and	a4,a4,a3
800058f8:	0017f793          	andi	a5,a5,1
800058fc:	00f767b3          	or	a5,a4,a5
80005900:	0fc0006f          	j	800059fc <__addsf3+0x1e0>
80005904:	06068463          	beqz	a3,8000596c <__addsf3+0x150>
80005908:	408606b3          	sub	a3,a2,s0
8000590c:	0ff00513          	li	a0,255
80005910:	00041e63          	bnez	s0,8000592c <__addsf3+0x110>
80005914:	32078063          	beqz	a5,80005c34 <__addsf3+0x418>
80005918:	fff68593          	addi	a1,a3,-1
8000591c:	f60582e3          	beqz	a1,80005880 <__addsf3+0x64>
80005920:	00a69e63          	bne	a3,a0,8000593c <__addsf3+0x120>
80005924:	0ff00413          	li	s0,255
80005928:	2300006f          	j	80005b58 <__addsf3+0x33c>
8000592c:	fea60ce3          	beq	a2,a0,80005924 <__addsf3+0x108>
80005930:	040005b7          	lui	a1,0x4000
80005934:	00b7e7b3          	or	a5,a5,a1
80005938:	00068593          	mv	a1,a3
8000593c:	01b00513          	li	a0,27
80005940:	00100693          	li	a3,1
80005944:	00b54e63          	blt	a0,a1,80005960 <__addsf3+0x144>
80005948:	02000693          	li	a3,32
8000594c:	40b686b3          	sub	a3,a3,a1
80005950:	00b7d533          	srl	a0,a5,a1
80005954:	00d797b3          	sll	a5,a5,a3
80005958:	00f037b3          	snez	a5,a5
8000595c:	00f566b3          	or	a3,a0,a5
80005960:	00e687b3          	add	a5,a3,a4
80005964:	00060413          	mv	s0,a2
80005968:	f6dff06f          	j	800058d4 <__addsf3+0xb8>
8000596c:	00140693          	addi	a3,s0,1
80005970:	0fe6f613          	andi	a2,a3,254
80005974:	06061a63          	bnez	a2,800059e8 <__addsf3+0x1cc>
80005978:	06041063          	bnez	s0,800059d8 <__addsf3+0x1bc>
8000597c:	2a078663          	beqz	a5,80005c28 <__addsf3+0x40c>
80005980:	08070a63          	beqz	a4,80005a14 <__addsf3+0x1f8>
80005984:	00f70733          	add	a4,a4,a5
80005988:	00571793          	slli	a5,a4,0x5
8000598c:	1c07d663          	bgez	a5,80005b58 <__addsf3+0x33c>
80005990:	1f8007b7          	lui	a5,0x1f800
80005994:	00375713          	srli	a4,a4,0x3
80005998:	fff78793          	addi	a5,a5,-1 # 1f7fffff <__heap_size+0x1f7f2fff>
8000599c:	00f777b3          	and	a5,a4,a5
800059a0:	00100413          	li	s0,1
800059a4:	0ff47413          	zext.b	s0,s0
800059a8:	00979793          	slli	a5,a5,0x9
800059ac:	01741413          	slli	s0,s0,0x17
800059b0:	0097d793          	srli	a5,a5,0x9
800059b4:	00f46433          	or	s0,s0,a5
800059b8:	01f49513          	slli	a0,s1,0x1f
800059bc:	00c12083          	lw	ra,12(sp)
800059c0:	00a46533          	or	a0,s0,a0
800059c4:	00812403          	lw	s0,8(sp)
800059c8:	00412483          	lw	s1,4(sp)
800059cc:	00012903          	lw	s2,0(sp)
800059d0:	01010113          	addi	sp,sp,16
800059d4:	00008067          	ret
800059d8:	f40786e3          	beqz	a5,80005924 <__addsf3+0x108>
800059dc:	1c071863          	bnez	a4,80005bac <__addsf3+0x390>
800059e0:	00078713          	mv	a4,a5
800059e4:	f41ff06f          	j	80005924 <__addsf3+0x108>
800059e8:	0ff00613          	li	a2,255
800059ec:	24c68863          	beq	a3,a2,80005c3c <__addsf3+0x420>
800059f0:	00e78733          	add	a4,a5,a4
800059f4:	00175793          	srli	a5,a4,0x1
800059f8:	00068413          	mv	s0,a3
800059fc:	0077f713          	andi	a4,a5,7
80005a00:	00070a63          	beqz	a4,80005a14 <__addsf3+0x1f8>
80005a04:	00f7f713          	andi	a4,a5,15
80005a08:	00400693          	li	a3,4
80005a0c:	00d70463          	beq	a4,a3,80005a14 <__addsf3+0x1f8>
80005a10:	00d787b3          	add	a5,a5,a3
80005a14:	00579713          	slli	a4,a5,0x5
80005a18:	e6075ee3          	bgez	a4,80005894 <__addsf3+0x78>
80005a1c:	00140413          	addi	s0,s0,1
80005a20:	0ff00713          	li	a4,255
80005a24:	20e40e63          	beq	s0,a4,80005c40 <__addsf3+0x424>
80005a28:	1f800737          	lui	a4,0x1f800
80005a2c:	0037d793          	srli	a5,a5,0x3
80005a30:	fff70713          	addi	a4,a4,-1 # 1f7fffff <__heap_size+0x1f7f2fff>
80005a34:	00e7f7b3          	and	a5,a5,a4
80005a38:	f6dff06f          	j	800059a4 <__addsf3+0x188>
80005a3c:	08d05063          	blez	a3,80005abc <__addsf3+0x2a0>
80005a40:	06061263          	bnez	a2,80005aa4 <__addsf3+0x288>
80005a44:	e40706e3          	beqz	a4,80005890 <__addsf3+0x74>
80005a48:	fff68613          	addi	a2,a3,-1
80005a4c:	00061863          	bnez	a2,80005a5c <__addsf3+0x240>
80005a50:	40e787b3          	sub	a5,a5,a4
80005a54:	00100413          	li	s0,1
80005a58:	0340006f          	j	80005a8c <__addsf3+0x270>
80005a5c:	0ff00593          	li	a1,255
80005a60:	e2b688e3          	beq	a3,a1,80005890 <__addsf3+0x74>
80005a64:	01b00593          	li	a1,27
80005a68:	00100693          	li	a3,1
80005a6c:	00c5ce63          	blt	a1,a2,80005a88 <__addsf3+0x26c>
80005a70:	02000693          	li	a3,32
80005a74:	40c686b3          	sub	a3,a3,a2
80005a78:	00c755b3          	srl	a1,a4,a2
80005a7c:	00d71733          	sll	a4,a4,a3
80005a80:	00e03733          	snez	a4,a4
80005a84:	00e5e6b3          	or	a3,a1,a4
80005a88:	40d787b3          	sub	a5,a5,a3
80005a8c:	00579713          	slli	a4,a5,0x5
80005a90:	f60756e3          	bgez	a4,800059fc <__addsf3+0x1e0>
80005a94:	04000937          	lui	s2,0x4000
80005a98:	fff90913          	addi	s2,s2,-1 # 3ffffff <__heap_size+0x3ff2fff>
80005a9c:	0127f933          	and	s2,a5,s2
80005aa0:	1300006f          	j	80005bd0 <__addsf3+0x3b4>
80005aa4:	0ff00613          	li	a2,255
80005aa8:	dec406e3          	beq	s0,a2,80005894 <__addsf3+0x78>
80005aac:	04000637          	lui	a2,0x4000
80005ab0:	00c76733          	or	a4,a4,a2
80005ab4:	00068613          	mv	a2,a3
80005ab8:	fadff06f          	j	80005a64 <__addsf3+0x248>
80005abc:	06068e63          	beqz	a3,80005b38 <__addsf3+0x31c>
80005ac0:	408606b3          	sub	a3,a2,s0
80005ac4:	02041663          	bnez	s0,80005af0 <__addsf3+0x2d4>
80005ac8:	16078463          	beqz	a5,80005c30 <__addsf3+0x414>
80005acc:	fff68513          	addi	a0,a3,-1
80005ad0:	00051863          	bnez	a0,80005ae0 <__addsf3+0x2c4>
80005ad4:	40f707b3          	sub	a5,a4,a5
80005ad8:	00058493          	mv	s1,a1
80005adc:	f79ff06f          	j	80005a54 <__addsf3+0x238>
80005ae0:	0ff00813          	li	a6,255
80005ae4:	03069063          	bne	a3,a6,80005b04 <__addsf3+0x2e8>
80005ae8:	00058493          	mv	s1,a1
80005aec:	e39ff06f          	j	80005924 <__addsf3+0x108>
80005af0:	0ff00513          	li	a0,255
80005af4:	fea60ae3          	beq	a2,a0,80005ae8 <__addsf3+0x2cc>
80005af8:	04000537          	lui	a0,0x4000
80005afc:	00a7e7b3          	or	a5,a5,a0
80005b00:	00068513          	mv	a0,a3
80005b04:	01b00813          	li	a6,27
80005b08:	00100693          	li	a3,1
80005b0c:	00a84e63          	blt	a6,a0,80005b28 <__addsf3+0x30c>
80005b10:	02000693          	li	a3,32
80005b14:	40a686b3          	sub	a3,a3,a0
80005b18:	00a7d833          	srl	a6,a5,a0
80005b1c:	00d797b3          	sll	a5,a5,a3
80005b20:	00f037b3          	snez	a5,a5
80005b24:	00f866b3          	or	a3,a6,a5
80005b28:	40d707b3          	sub	a5,a4,a3
80005b2c:	00060413          	mv	s0,a2
80005b30:	00058493          	mv	s1,a1
80005b34:	f59ff06f          	j	80005a8c <__addsf3+0x270>
80005b38:	00140693          	addi	a3,s0,1
80005b3c:	0fe6f693          	andi	a3,a3,254
80005b40:	06069e63          	bnez	a3,80005bbc <__addsf3+0x3a0>
80005b44:	06041263          	bnez	s0,80005ba8 <__addsf3+0x38c>
80005b48:	02079463          	bnez	a5,80005b70 <__addsf3+0x354>
80005b4c:	00000493          	li	s1,0
80005b50:	e4070ae3          	beqz	a4,800059a4 <__addsf3+0x188>
80005b54:	00058493          	mv	s1,a1
80005b58:	00375793          	srli	a5,a4,0x3
80005b5c:	0ff00713          	li	a4,255
80005b60:	e4e412e3          	bne	s0,a4,800059a4 <__addsf3+0x188>
80005b64:	e40780e3          	beqz	a5,800059a4 <__addsf3+0x188>
80005b68:	004007b7          	lui	a5,0x400
80005b6c:	0340006f          	j	80005ba0 <__addsf3+0x384>
80005b70:	ea0702e3          	beqz	a4,80005a14 <__addsf3+0x1f8>
80005b74:	40e786b3          	sub	a3,a5,a4
80005b78:	00569613          	slli	a2,a3,0x5
80005b7c:	00065c63          	bgez	a2,80005b94 <__addsf3+0x378>
80005b80:	40f707b3          	sub	a5,a4,a5
80005b84:	00058493          	mv	s1,a1
80005b88:	00000413          	li	s0,0
80005b8c:	e0078ce3          	beqz	a5,800059a4 <__addsf3+0x188>
80005b90:	e6dff06f          	j	800059fc <__addsf3+0x1e0>
80005b94:	00068713          	mv	a4,a3
80005b98:	fc0690e3          	bnez	a3,80005b58 <__addsf3+0x33c>
80005b9c:	00000793          	li	a5,0
80005ba0:	00000493          	li	s1,0
80005ba4:	e01ff06f          	j	800059a4 <__addsf3+0x188>
80005ba8:	e2079ae3          	bnez	a5,800059dc <__addsf3+0x1c0>
80005bac:	00000493          	li	s1,0
80005bb0:	0ff00413          	li	s0,255
80005bb4:	004007b7          	lui	a5,0x400
80005bb8:	dedff06f          	j	800059a4 <__addsf3+0x188>
80005bbc:	40e78933          	sub	s2,a5,a4
80005bc0:	00591693          	slli	a3,s2,0x5
80005bc4:	0406d263          	bgez	a3,80005c08 <__addsf3+0x3ec>
80005bc8:	40f70933          	sub	s2,a4,a5
80005bcc:	00058493          	mv	s1,a1
80005bd0:	00090513          	mv	a0,s2
80005bd4:	50c000ef          	jal	800060e0 <__clzsi2>
80005bd8:	ffb50513          	addi	a0,a0,-5 # 3fffffb <__heap_size+0x3ff2ffb>
80005bdc:	00a91933          	sll	s2,s2,a0
80005be0:	02854a63          	blt	a0,s0,80005c14 <__addsf3+0x3f8>
80005be4:	40850533          	sub	a0,a0,s0
80005be8:	00150513          	addi	a0,a0,1
80005bec:	02000713          	li	a4,32
80005bf0:	40a70733          	sub	a4,a4,a0
80005bf4:	00a957b3          	srl	a5,s2,a0
80005bf8:	00e91933          	sll	s2,s2,a4
80005bfc:	01203933          	snez	s2,s2
80005c00:	0127e7b3          	or	a5,a5,s2
80005c04:	f85ff06f          	j	80005b88 <__addsf3+0x36c>
80005c08:	fc0914e3          	bnez	s2,80005bd0 <__addsf3+0x3b4>
80005c0c:	00000413          	li	s0,0
80005c10:	f8dff06f          	j	80005b9c <__addsf3+0x380>
80005c14:	fc0007b7          	lui	a5,0xfc000
80005c18:	fff78793          	addi	a5,a5,-1 # fbffffff <__stack_top+0x7bfe9c2f>
80005c1c:	40a40433          	sub	s0,s0,a0
80005c20:	00f977b3          	and	a5,s2,a5
80005c24:	dd9ff06f          	j	800059fc <__addsf3+0x1e0>
80005c28:	00070793          	mv	a5,a4
80005c2c:	f5dff06f          	j	80005b88 <__addsf3+0x36c>
80005c30:	00058493          	mv	s1,a1
80005c34:	00068413          	mv	s0,a3
80005c38:	f21ff06f          	j	80005b58 <__addsf3+0x33c>
80005c3c:	00068413          	mv	s0,a3
80005c40:	00000793          	li	a5,0
80005c44:	d61ff06f          	j	800059a4 <__addsf3+0x188>

80005c48 <__mulsf3>:
80005c48:	fe010113          	addi	sp,sp,-32
80005c4c:	01212823          	sw	s2,16(sp)
80005c50:	01755913          	srli	s2,a0,0x17
80005c54:	00912a23          	sw	s1,20(sp)
80005c58:	01312623          	sw	s3,12(sp)
80005c5c:	01512223          	sw	s5,4(sp)
80005c60:	00951493          	slli	s1,a0,0x9
80005c64:	00112e23          	sw	ra,28(sp)
80005c68:	00812c23          	sw	s0,24(sp)
80005c6c:	01412423          	sw	s4,8(sp)
80005c70:	0ff97913          	zext.b	s2,s2
80005c74:	00058a93          	mv	s5,a1
80005c78:	0094d493          	srli	s1,s1,0x9
80005c7c:	01f55993          	srli	s3,a0,0x1f
80005c80:	18090463          	beqz	s2,80005e08 <__mulsf3+0x1c0>
80005c84:	0ff00793          	li	a5,255
80005c88:	1af90063          	beq	s2,a5,80005e28 <__mulsf3+0x1e0>
80005c8c:	00349493          	slli	s1,s1,0x3
80005c90:	040007b7          	lui	a5,0x4000
80005c94:	00f4e4b3          	or	s1,s1,a5
80005c98:	f8190913          	addi	s2,s2,-127
80005c9c:	00000a13          	li	s4,0
80005ca0:	017ad793          	srli	a5,s5,0x17
80005ca4:	009a9413          	slli	s0,s5,0x9
80005ca8:	0ff7f793          	zext.b	a5,a5
80005cac:	00945413          	srli	s0,s0,0x9
80005cb0:	01fada93          	srli	s5,s5,0x1f
80005cb4:	18078863          	beqz	a5,80005e44 <__mulsf3+0x1fc>
80005cb8:	0ff00713          	li	a4,255
80005cbc:	1ae78463          	beq	a5,a4,80005e64 <__mulsf3+0x21c>
80005cc0:	00341413          	slli	s0,s0,0x3
80005cc4:	04000737          	lui	a4,0x4000
80005cc8:	00e46433          	or	s0,s0,a4
80005ccc:	f8178793          	addi	a5,a5,-127 # 3ffff81 <__heap_size+0x3ff2f81>
80005cd0:	00000713          	li	a4,0
80005cd4:	00f90933          	add	s2,s2,a5
80005cd8:	002a1793          	slli	a5,s4,0x2
80005cdc:	00e7e7b3          	or	a5,a5,a4
80005ce0:	00a00693          	li	a3,10
80005ce4:	00190613          	addi	a2,s2,1
80005ce8:	1cf6ce63          	blt	a3,a5,80005ec4 <__mulsf3+0x27c>
80005cec:	00200593          	li	a1,2
80005cf0:	0159c9b3          	xor	s3,s3,s5
80005cf4:	00100693          	li	a3,1
80005cf8:	18f5c463          	blt	a1,a5,80005e80 <__mulsf3+0x238>
80005cfc:	fff78793          	addi	a5,a5,-1
80005d00:	1af6f063          	bgeu	a3,a5,80005ea0 <__mulsf3+0x258>
80005d04:	0104d713          	srli	a4,s1,0x10
80005d08:	01045793          	srli	a5,s0,0x10
80005d0c:	01049493          	slli	s1,s1,0x10
80005d10:	01041413          	slli	s0,s0,0x10
80005d14:	0104d493          	srli	s1,s1,0x10
80005d18:	01045413          	srli	s0,s0,0x10
80005d1c:	029405b3          	mul	a1,s0,s1
80005d20:	02870433          	mul	s0,a4,s0
80005d24:	02f70733          	mul	a4,a4,a5
80005d28:	029787b3          	mul	a5,a5,s1
80005d2c:	008786b3          	add	a3,a5,s0
80005d30:	0105d793          	srli	a5,a1,0x10
80005d34:	00d787b3          	add	a5,a5,a3
80005d38:	0087f663          	bgeu	a5,s0,80005d44 <__mulsf3+0xfc>
80005d3c:	000106b7          	lui	a3,0x10
80005d40:	00d70733          	add	a4,a4,a3
80005d44:	01059593          	slli	a1,a1,0x10
80005d48:	01079693          	slli	a3,a5,0x10
80005d4c:	0105d593          	srli	a1,a1,0x10
80005d50:	00b686b3          	add	a3,a3,a1
80005d54:	0107d793          	srli	a5,a5,0x10
80005d58:	00669413          	slli	s0,a3,0x6
80005d5c:	00e787b3          	add	a5,a5,a4
80005d60:	00679793          	slli	a5,a5,0x6
80005d64:	00803433          	snez	s0,s0
80005d68:	01a6d693          	srli	a3,a3,0x1a
80005d6c:	00d46433          	or	s0,s0,a3
80005d70:	00479713          	slli	a4,a5,0x4
80005d74:	0087e433          	or	s0,a5,s0
80005d78:	16075463          	bgez	a4,80005ee0 <__mulsf3+0x298>
80005d7c:	00145793          	srli	a5,s0,0x1
80005d80:	00147413          	andi	s0,s0,1
80005d84:	0087e433          	or	s0,a5,s0
80005d88:	07f60713          	addi	a4,a2,127 # 400007f <__heap_size+0x3ff307f>
80005d8c:	14e05e63          	blez	a4,80005ee8 <__mulsf3+0x2a0>
80005d90:	00747793          	andi	a5,s0,7
80005d94:	00078a63          	beqz	a5,80005da8 <__mulsf3+0x160>
80005d98:	00f47793          	andi	a5,s0,15
80005d9c:	00400693          	li	a3,4
80005da0:	00d78463          	beq	a5,a3,80005da8 <__mulsf3+0x160>
80005da4:	00d40433          	add	s0,s0,a3
80005da8:	00441793          	slli	a5,s0,0x4
80005dac:	0007da63          	bgez	a5,80005dc0 <__mulsf3+0x178>
80005db0:	f80007b7          	lui	a5,0xf8000
80005db4:	fff78793          	addi	a5,a5,-1 # f7ffffff <__stack_top+0x77fe9c2f>
80005db8:	00f47433          	and	s0,s0,a5
80005dbc:	08060713          	addi	a4,a2,128
80005dc0:	0fe00793          	li	a5,254
80005dc4:	18e7ca63          	blt	a5,a4,80005f58 <__mulsf3+0x310>
80005dc8:	00345793          	srli	a5,s0,0x3
80005dcc:	01c12083          	lw	ra,28(sp)
80005dd0:	01812403          	lw	s0,24(sp)
80005dd4:	00979793          	slli	a5,a5,0x9
80005dd8:	01771713          	slli	a4,a4,0x17
80005ddc:	0097d793          	srli	a5,a5,0x9
80005de0:	01f99993          	slli	s3,s3,0x1f
80005de4:	00f76733          	or	a4,a4,a5
80005de8:	01412483          	lw	s1,20(sp)
80005dec:	01012903          	lw	s2,16(sp)
80005df0:	00812a03          	lw	s4,8(sp)
80005df4:	00412a83          	lw	s5,4(sp)
80005df8:	01376533          	or	a0,a4,s3
80005dfc:	00c12983          	lw	s3,12(sp)
80005e00:	02010113          	addi	sp,sp,32
80005e04:	00008067          	ret
80005e08:	02048863          	beqz	s1,80005e38 <__mulsf3+0x1f0>
80005e0c:	00048513          	mv	a0,s1
80005e10:	2d0000ef          	jal	800060e0 <__clzsi2>
80005e14:	ffb50793          	addi	a5,a0,-5
80005e18:	f8a00913          	li	s2,-118
80005e1c:	00f494b3          	sll	s1,s1,a5
80005e20:	40a90933          	sub	s2,s2,a0
80005e24:	e79ff06f          	j	80005c9c <__mulsf3+0x54>
80005e28:	00200a13          	li	s4,2
80005e2c:	e6048ae3          	beqz	s1,80005ca0 <__mulsf3+0x58>
80005e30:	00300a13          	li	s4,3
80005e34:	e6dff06f          	j	80005ca0 <__mulsf3+0x58>
80005e38:	00000913          	li	s2,0
80005e3c:	00100a13          	li	s4,1
80005e40:	e61ff06f          	j	80005ca0 <__mulsf3+0x58>
80005e44:	02040863          	beqz	s0,80005e74 <__mulsf3+0x22c>
80005e48:	00040513          	mv	a0,s0
80005e4c:	294000ef          	jal	800060e0 <__clzsi2>
80005e50:	ffb50793          	addi	a5,a0,-5
80005e54:	00f41433          	sll	s0,s0,a5
80005e58:	f8a00793          	li	a5,-118
80005e5c:	40a787b3          	sub	a5,a5,a0
80005e60:	e71ff06f          	j	80005cd0 <__mulsf3+0x88>
80005e64:	00200713          	li	a4,2
80005e68:	e60406e3          	beqz	s0,80005cd4 <__mulsf3+0x8c>
80005e6c:	00300713          	li	a4,3
80005e70:	e65ff06f          	j	80005cd4 <__mulsf3+0x8c>
80005e74:	00000793          	li	a5,0
80005e78:	00100713          	li	a4,1
80005e7c:	e59ff06f          	j	80005cd4 <__mulsf3+0x8c>
80005e80:	00f697b3          	sll	a5,a3,a5
80005e84:	5307f693          	andi	a3,a5,1328
80005e88:	04069663          	bnez	a3,80005ed4 <__mulsf3+0x28c>
80005e8c:	2407f693          	andi	a3,a5,576
80005e90:	0a069c63          	bnez	a3,80005f48 <__mulsf3+0x300>
80005e94:	0887f793          	andi	a5,a5,136
80005e98:	e60786e3          	beqz	a5,80005d04 <__mulsf3+0xbc>
80005e9c:	000a8993          	mv	s3,s5
80005ea0:	00200793          	li	a5,2
80005ea4:	0af70a63          	beq	a4,a5,80005f58 <__mulsf3+0x310>
80005ea8:	00300793          	li	a5,3
80005eac:	08f70e63          	beq	a4,a5,80005f48 <__mulsf3+0x300>
80005eb0:	00100793          	li	a5,1
80005eb4:	ecf71ae3          	bne	a4,a5,80005d88 <__mulsf3+0x140>
80005eb8:	00000793          	li	a5,0
80005ebc:	00000713          	li	a4,0
80005ec0:	f0dff06f          	j	80005dcc <__mulsf3+0x184>
80005ec4:	00f00693          	li	a3,15
80005ec8:	08d78063          	beq	a5,a3,80005f48 <__mulsf3+0x300>
80005ecc:	00b00693          	li	a3,11
80005ed0:	fcd786e3          	beq	a5,a3,80005e9c <__mulsf3+0x254>
80005ed4:	00048413          	mv	s0,s1
80005ed8:	000a0713          	mv	a4,s4
80005edc:	fc5ff06f          	j	80005ea0 <__mulsf3+0x258>
80005ee0:	00090613          	mv	a2,s2
80005ee4:	ea5ff06f          	j	80005d88 <__mulsf3+0x140>
80005ee8:	04070c63          	beqz	a4,80005f40 <__mulsf3+0x2f8>
80005eec:	fe600793          	li	a5,-26
80005ef0:	fcf744e3          	blt	a4,a5,80005eb8 <__mulsf3+0x270>
80005ef4:	00100793          	li	a5,1
80005ef8:	40e787b3          	sub	a5,a5,a4
80005efc:	09e60613          	addi	a2,a2,158
80005f00:	00f457b3          	srl	a5,s0,a5
80005f04:	00c41433          	sll	s0,s0,a2
80005f08:	00803433          	snez	s0,s0
80005f0c:	0087e7b3          	or	a5,a5,s0
80005f10:	0077f713          	andi	a4,a5,7
80005f14:	00070a63          	beqz	a4,80005f28 <__mulsf3+0x2e0>
80005f18:	00f7f713          	andi	a4,a5,15
80005f1c:	00400693          	li	a3,4
80005f20:	00d70463          	beq	a4,a3,80005f28 <__mulsf3+0x2e0>
80005f24:	00d787b3          	add	a5,a5,a3
80005f28:	00579713          	slli	a4,a5,0x5
80005f2c:	0037d793          	srli	a5,a5,0x3
80005f30:	f80756e3          	bgez	a4,80005ebc <__mulsf3+0x274>
80005f34:	00000793          	li	a5,0
80005f38:	00100713          	li	a4,1
80005f3c:	e91ff06f          	j	80005dcc <__mulsf3+0x184>
80005f40:	00100793          	li	a5,1
80005f44:	fb9ff06f          	j	80005efc <__mulsf3+0x2b4>
80005f48:	004007b7          	lui	a5,0x400
80005f4c:	0ff00713          	li	a4,255
80005f50:	00000993          	li	s3,0
80005f54:	e79ff06f          	j	80005dcc <__mulsf3+0x184>
80005f58:	00000793          	li	a5,0
80005f5c:	0ff00713          	li	a4,255
80005f60:	e6dff06f          	j	80005dcc <__mulsf3+0x184>

80005f64 <__fixsfsi>:
80005f64:	00800637          	lui	a2,0x800
80005f68:	01755713          	srli	a4,a0,0x17
80005f6c:	fff60793          	addi	a5,a2,-1 # 7fffff <__heap_size+0x7f2fff>
80005f70:	0ff77713          	zext.b	a4,a4
80005f74:	07e00593          	li	a1,126
80005f78:	00a7f7b3          	and	a5,a5,a0
80005f7c:	01f55693          	srli	a3,a0,0x1f
80005f80:	04e5d663          	bge	a1,a4,80005fcc <__fixsfsi+0x68>
80005f84:	09d00593          	li	a1,157
80005f88:	00e5da63          	bge	a1,a4,80005f9c <__fixsfsi+0x38>
80005f8c:	80000537          	lui	a0,0x80000
80005f90:	fff50513          	addi	a0,a0,-1 # 7fffffff <__heap_size+0x7fff2fff>
80005f94:	00a68533          	add	a0,a3,a0
80005f98:	00008067          	ret
80005f9c:	00c7e533          	or	a0,a5,a2
80005fa0:	09500793          	li	a5,149
80005fa4:	00e7dc63          	bge	a5,a4,80005fbc <__fixsfsi+0x58>
80005fa8:	f6a70713          	addi	a4,a4,-150 # 3ffff6a <__heap_size+0x3ff2f6a>
80005fac:	00e51533          	sll	a0,a0,a4
80005fb0:	02068063          	beqz	a3,80005fd0 <__fixsfsi+0x6c>
80005fb4:	40a00533          	neg	a0,a0
80005fb8:	00008067          	ret
80005fbc:	09600793          	li	a5,150
80005fc0:	40e787b3          	sub	a5,a5,a4
80005fc4:	00f55533          	srl	a0,a0,a5
80005fc8:	fe9ff06f          	j	80005fb0 <__fixsfsi+0x4c>
80005fcc:	00000513          	li	a0,0
80005fd0:	00008067          	ret

80005fd4 <__floatsisf>:
80005fd4:	ff010113          	addi	sp,sp,-16
80005fd8:	00112623          	sw	ra,12(sp)
80005fdc:	00812423          	sw	s0,8(sp)
80005fe0:	00912223          	sw	s1,4(sp)
80005fe4:	0e050463          	beqz	a0,800060cc <__floatsisf+0xf8>
80005fe8:	41f55793          	srai	a5,a0,0x1f
80005fec:	00a7c433          	xor	s0,a5,a0
80005ff0:	40f40433          	sub	s0,s0,a5
80005ff4:	01f55493          	srli	s1,a0,0x1f
80005ff8:	00040513          	mv	a0,s0
80005ffc:	0e4000ef          	jal	800060e0 <__clzsi2>
80006000:	09e00793          	li	a5,158
80006004:	00050693          	mv	a3,a0
80006008:	40a78533          	sub	a0,a5,a0
8000600c:	00700793          	li	a5,7
80006010:	04d7d063          	bge	a5,a3,80006050 <__floatsisf+0x7c>
80006014:	00800793          	li	a5,8
80006018:	0cf68063          	beq	a3,a5,800060d8 <__floatsisf+0x104>
8000601c:	ff868693          	addi	a3,a3,-8 # fff8 <__heap_size+0x2ff8>
80006020:	00d41433          	sll	s0,s0,a3
80006024:	00941413          	slli	s0,s0,0x9
80006028:	00945413          	srli	s0,s0,0x9
8000602c:	01751513          	slli	a0,a0,0x17
80006030:	00c12083          	lw	ra,12(sp)
80006034:	00856533          	or	a0,a0,s0
80006038:	00812403          	lw	s0,8(sp)
8000603c:	01f49493          	slli	s1,s1,0x1f
80006040:	00956533          	or	a0,a0,s1
80006044:	00412483          	lw	s1,4(sp)
80006048:	01010113          	addi	sp,sp,16
8000604c:	00008067          	ret
80006050:	00400793          	li	a5,4
80006054:	00500713          	li	a4,5
80006058:	06d7c263          	blt	a5,a3,800060bc <__floatsisf+0xe8>
8000605c:	01b68793          	addi	a5,a3,27
80006060:	00f417b3          	sll	a5,s0,a5
80006064:	40d70733          	sub	a4,a4,a3
80006068:	00f037b3          	snez	a5,a5
8000606c:	00e45433          	srl	s0,s0,a4
80006070:	0087e433          	or	s0,a5,s0
80006074:	fc000737          	lui	a4,0xfc000
80006078:	fff70713          	addi	a4,a4,-1 # fbffffff <__stack_top+0x7bfe9c2f>
8000607c:	00747793          	andi	a5,s0,7
80006080:	00e47733          	and	a4,s0,a4
80006084:	02078863          	beqz	a5,800060b4 <__floatsisf+0xe0>
80006088:	00f47413          	andi	s0,s0,15
8000608c:	00400793          	li	a5,4
80006090:	02f40263          	beq	s0,a5,800060b4 <__floatsisf+0xe0>
80006094:	00f70733          	add	a4,a4,a5
80006098:	00571793          	slli	a5,a4,0x5
8000609c:	0007dc63          	bgez	a5,800060b4 <__floatsisf+0xe0>
800060a0:	fc0007b7          	lui	a5,0xfc000
800060a4:	fff78793          	addi	a5,a5,-1 # fbffffff <__stack_top+0x7bfe9c2f>
800060a8:	00f77733          	and	a4,a4,a5
800060ac:	09f00793          	li	a5,159
800060b0:	40d78533          	sub	a0,a5,a3
800060b4:	00375413          	srli	s0,a4,0x3
800060b8:	f6dff06f          	j	80006024 <__floatsisf+0x50>
800060bc:	fae68ce3          	beq	a3,a4,80006074 <__floatsisf+0xa0>
800060c0:	ffb68793          	addi	a5,a3,-5
800060c4:	00f41433          	sll	s0,s0,a5
800060c8:	fadff06f          	j	80006074 <__floatsisf+0xa0>
800060cc:	00000493          	li	s1,0
800060d0:	00000413          	li	s0,0
800060d4:	f51ff06f          	j	80006024 <__floatsisf+0x50>
800060d8:	09600513          	li	a0,150
800060dc:	f49ff06f          	j	80006024 <__floatsisf+0x50>

800060e0 <__clzsi2>:
800060e0:	000107b7          	lui	a5,0x10
800060e4:	02f57a63          	bgeu	a0,a5,80006118 <__clzsi2+0x38>
800060e8:	10053793          	sltiu	a5,a0,256
800060ec:	0017b793          	seqz	a5,a5
800060f0:	00379793          	slli	a5,a5,0x3
800060f4:	80008737          	lui	a4,0x80008
800060f8:	00f55533          	srl	a0,a0,a5
800060fc:	27c70713          	addi	a4,a4,636 # 8000827c <__clz_tab>
80006100:	00a70733          	add	a4,a4,a0
80006104:	00074503          	lbu	a0,0(a4)
80006108:	02000693          	li	a3,32
8000610c:	40f686b3          	sub	a3,a3,a5
80006110:	40a68533          	sub	a0,a3,a0
80006114:	00008067          	ret
80006118:	01000737          	lui	a4,0x1000
8000611c:	01800793          	li	a5,24
80006120:	fce57ae3          	bgeu	a0,a4,800060f4 <__clzsi2+0x14>
80006124:	01000793          	li	a5,16
80006128:	fcdff06f          	j	800060f4 <__clzsi2+0x14>
